
riscv64-test1:     file format elf64-littleriscv


Disassembly of section .text:

00000000000100b0 <register_fini>:
   100b0:	00000793          	li	a5,0
   100b4:	c791                	beqz	a5,100c0 <register_fini+0x10>
   100b6:	6549                	lui	a0,0x12
   100b8:	70450513          	addi	a0,a0,1796 # 12704 <__libc_fini_array>
   100bc:	6de0906f          	j	1979a <atexit>
   100c0:	8082                	ret

00000000000100c2 <_start>:
   100c2:	0000f197          	auipc	gp,0xf
   100c6:	d4e18193          	addi	gp,gp,-690 # 1ee10 <__global_pointer$>
   100ca:	77018513          	addi	a0,gp,1904 # 1f580 <_PathLocale>
   100ce:	0000f617          	auipc	a2,0xf
   100d2:	54260613          	addi	a2,a2,1346 # 1f610 <__BSS_END__>
   100d6:	8e09                	sub	a2,a2,a0
   100d8:	4581                	li	a1,0
   100da:	21a000ef          	jal	ra,102f4 <memset>
   100de:	00009517          	auipc	a0,0x9
   100e2:	6bc50513          	addi	a0,a0,1724 # 1979a <atexit>
   100e6:	c519                	beqz	a0,100f4 <_start+0x32>
   100e8:	00002517          	auipc	a0,0x2
   100ec:	61c50513          	addi	a0,a0,1564 # 12704 <__libc_fini_array>
   100f0:	6aa090ef          	jal	ra,1979a <atexit>
   100f4:	196000ef          	jal	ra,1028a <__libc_init_array>
   100f8:	4502                	lw	a0,0(sp)
   100fa:	002c                	addi	a1,sp,8
   100fc:	4601                	li	a2,0
   100fe:	0ec000ef          	jal	ra,101ea <main>
   10102:	a2ad                	j	1026c <exit>

0000000000010104 <__do_global_dtors_aux>:
   10104:	1141                	addi	sp,sp,-16
   10106:	e022                	sd	s0,0(sp)
   10108:	7a01c783          	lbu	a5,1952(gp) # 1f5b0 <completed.1>
   1010c:	e406                	sd	ra,8(sp)
   1010e:	ef91                	bnez	a5,1012a <__do_global_dtors_aux+0x26>
   10110:	00000793          	li	a5,0
   10114:	cb81                	beqz	a5,10124 <__do_global_dtors_aux+0x20>
   10116:	6579                	lui	a0,0x1e
   10118:	40850513          	addi	a0,a0,1032 # 1e408 <__FRAME_END__>
   1011c:	00000097          	auipc	ra,0x0
   10120:	000000e7          	jalr	zero # 0 <register_fini-0x100b0>
   10124:	4785                	li	a5,1
   10126:	7af18023          	sb	a5,1952(gp) # 1f5b0 <completed.1>
   1012a:	60a2                	ld	ra,8(sp)
   1012c:	6402                	ld	s0,0(sp)
   1012e:	0141                	addi	sp,sp,16
   10130:	8082                	ret

0000000000010132 <frame_dummy>:
   10132:	00000793          	li	a5,0
   10136:	cb91                	beqz	a5,1014a <frame_dummy+0x18>
   10138:	6579                	lui	a0,0x1e
   1013a:	7a818593          	addi	a1,gp,1960 # 1f5b8 <object.0>
   1013e:	40850513          	addi	a0,a0,1032 # 1e408 <__FRAME_END__>
   10142:	00000317          	auipc	t1,0x0
   10146:	00000067          	jr	zero # 0 <register_fini-0x100b0>
   1014a:	8082                	ret

000000000001014c <add>:
   1014c:	1101                	addi	sp,sp,-32
   1014e:	ec22                	sd	s0,24(sp)
   10150:	1000                	addi	s0,sp,32
   10152:	87aa                	mv	a5,a0
   10154:	872e                	mv	a4,a1
   10156:	fef42623          	sw	a5,-20(s0)
   1015a:	87ba                	mv	a5,a4
   1015c:	fef42423          	sw	a5,-24(s0)
   10160:	fec42783          	lw	a5,-20(s0)
   10164:	873e                	mv	a4,a5
   10166:	fe842783          	lw	a5,-24(s0)
   1016a:	9fb9                	addw	a5,a5,a4
   1016c:	2781                	sext.w	a5,a5
   1016e:	853e                	mv	a0,a5
   10170:	6462                	ld	s0,24(sp)
   10172:	6105                	addi	sp,sp,32
   10174:	8082                	ret

0000000000010176 <sampleFunc>:
   10176:	7179                	addi	sp,sp,-48
   10178:	f406                	sd	ra,40(sp)
   1017a:	f022                	sd	s0,32(sp)
   1017c:	1800                	addi	s0,sp,48
   1017e:	fca43c23          	sd	a0,-40(s0)
   10182:	fcb43823          	sd	a1,-48(s0)
   10186:	fe042623          	sw	zero,-20(s0)
   1018a:	a099                	j	101d0 <sampleFunc+0x5a>
   1018c:	fec42783          	lw	a5,-20(s0)
   10190:	078a                	slli	a5,a5,0x2
   10192:	fd843703          	ld	a4,-40(s0)
   10196:	97ba                	add	a5,a5,a4
   10198:	4394                	lw	a3,0(a5)
   1019a:	fec42783          	lw	a5,-20(s0)
   1019e:	078a                	slli	a5,a5,0x2
   101a0:	fd043703          	ld	a4,-48(s0)
   101a4:	97ba                	add	a5,a5,a4
   101a6:	439c                	lw	a5,0(a5)
   101a8:	85be                	mv	a1,a5
   101aa:	8536                	mv	a0,a3
   101ac:	fa1ff0ef          	jal	ra,1014c <add>
   101b0:	87aa                	mv	a5,a0
   101b2:	fef42423          	sw	a5,-24(s0)
   101b6:	fe842783          	lw	a5,-24(s0)
   101ba:	85be                	mv	a1,a5
   101bc:	67f1                	lui	a5,0x1c
   101be:	46078513          	addi	a0,a5,1120 # 1c460 <__clzdi2+0x30>
   101c2:	1fe000ef          	jal	ra,103c0 <printf>
   101c6:	fec42783          	lw	a5,-20(s0)
   101ca:	2785                	addiw	a5,a5,1
   101cc:	fef42623          	sw	a5,-20(s0)
   101d0:	fec42783          	lw	a5,-20(s0)
   101d4:	0007871b          	sext.w	a4,a5
   101d8:	4791                	li	a5,4
   101da:	fae7d9e3          	bge	a5,a4,1018c <sampleFunc+0x16>
   101de:	0001                	nop
   101e0:	0001                	nop
   101e2:	70a2                	ld	ra,40(sp)
   101e4:	7402                	ld	s0,32(sp)
   101e6:	6145                	addi	sp,sp,48
   101e8:	8082                	ret

00000000000101ea <main>:
   101ea:	7139                	addi	sp,sp,-64
   101ec:	fc06                	sd	ra,56(sp)
   101ee:	f822                	sd	s0,48(sp)
   101f0:	0080                	addi	s0,sp,64
   101f2:	67f1                	lui	a5,0x1c
   101f4:	48078513          	addi	a0,a5,1152 # 1c480 <__clzdi2+0x50>
   101f8:	272000ef          	jal	ra,1046a <puts>
   101fc:	fe042623          	sw	zero,-20(s0)
   10200:	a825                	j	10238 <main+0x4e>
   10202:	fec42783          	lw	a5,-20(s0)
   10206:	078a                	slli	a5,a5,0x2
   10208:	17c1                	addi	a5,a5,-16
   1020a:	97a2                	add	a5,a5,s0
   1020c:	fec42703          	lw	a4,-20(s0)
   10210:	fee7a423          	sw	a4,-24(a5)
   10214:	fec42783          	lw	a5,-20(s0)
   10218:	0017979b          	slliw	a5,a5,0x1
   1021c:	0007871b          	sext.w	a4,a5
   10220:	fec42783          	lw	a5,-20(s0)
   10224:	078a                	slli	a5,a5,0x2
   10226:	17c1                	addi	a5,a5,-16
   10228:	97a2                	add	a5,a5,s0
   1022a:	fce7a823          	sw	a4,-48(a5)
   1022e:	fec42783          	lw	a5,-20(s0)
   10232:	2785                	addiw	a5,a5,1
   10234:	fef42623          	sw	a5,-20(s0)
   10238:	fec42783          	lw	a5,-20(s0)
   1023c:	0007871b          	sext.w	a4,a5
   10240:	4791                	li	a5,4
   10242:	fce7d0e3          	bge	a5,a4,10202 <main+0x18>
   10246:	67f1                	lui	a5,0x1c
   10248:	4a078513          	addi	a0,a5,1184 # 1c4a0 <__clzdi2+0x70>
   1024c:	21e000ef          	jal	ra,1046a <puts>
   10250:	fc040713          	addi	a4,s0,-64
   10254:	fd840793          	addi	a5,s0,-40
   10258:	85ba                	mv	a1,a4
   1025a:	853e                	mv	a0,a5
   1025c:	f1bff0ef          	jal	ra,10176 <sampleFunc>
   10260:	4781                	li	a5,0
   10262:	853e                	mv	a0,a5
   10264:	70e2                	ld	ra,56(sp)
   10266:	7442                	ld	s0,48(sp)
   10268:	6121                	addi	sp,sp,64
   1026a:	8082                	ret

000000000001026c <exit>:
   1026c:	1141                	addi	sp,sp,-16
   1026e:	4581                	li	a1,0
   10270:	e022                	sd	s0,0(sp)
   10272:	e406                	sd	ra,8(sp)
   10274:	842a                	mv	s0,a0
   10276:	731010ef          	jal	ra,121a6 <__call_exitprocs>
   1027a:	7481b503          	ld	a0,1864(gp) # 1f558 <_global_impure_ptr>
   1027e:	6d3c                	ld	a5,88(a0)
   10280:	c391                	beqz	a5,10284 <exit+0x18>
   10282:	9782                	jalr	a5
   10284:	8522                	mv	a0,s0
   10286:	40b0a0ef          	jal	ra,1ae90 <_exit>

000000000001028a <__libc_init_array>:
   1028a:	1101                	addi	sp,sp,-32
   1028c:	e822                	sd	s0,16(sp)
   1028e:	e04a                	sd	s2,0(sp)
   10290:	6479                	lui	s0,0x1e
   10292:	6979                	lui	s2,0x1e
   10294:	40c40793          	addi	a5,s0,1036 # 1e40c <__preinit_array_end>
   10298:	40c90913          	addi	s2,s2,1036 # 1e40c <__preinit_array_end>
   1029c:	40f90933          	sub	s2,s2,a5
   102a0:	ec06                	sd	ra,24(sp)
   102a2:	e426                	sd	s1,8(sp)
   102a4:	40395913          	srai	s2,s2,0x3
   102a8:	00090b63          	beqz	s2,102be <__libc_init_array+0x34>
   102ac:	40c40413          	addi	s0,s0,1036
   102b0:	4481                	li	s1,0
   102b2:	601c                	ld	a5,0(s0)
   102b4:	0485                	addi	s1,s1,1
   102b6:	0421                	addi	s0,s0,8
   102b8:	9782                	jalr	a5
   102ba:	fe991ce3          	bne	s2,s1,102b2 <__libc_init_array+0x28>
   102be:	6479                	lui	s0,0x1e
   102c0:	6979                	lui	s2,0x1e
   102c2:	41040793          	addi	a5,s0,1040 # 1e410 <__init_array_start>
   102c6:	42090913          	addi	s2,s2,1056 # 1e420 <__do_global_dtors_aux_fini_array_entry>
   102ca:	40f90933          	sub	s2,s2,a5
   102ce:	40395913          	srai	s2,s2,0x3
   102d2:	00090b63          	beqz	s2,102e8 <__libc_init_array+0x5e>
   102d6:	41040413          	addi	s0,s0,1040
   102da:	4481                	li	s1,0
   102dc:	601c                	ld	a5,0(s0)
   102de:	0485                	addi	s1,s1,1
   102e0:	0421                	addi	s0,s0,8
   102e2:	9782                	jalr	a5
   102e4:	fe991ce3          	bne	s2,s1,102dc <__libc_init_array+0x52>
   102e8:	60e2                	ld	ra,24(sp)
   102ea:	6442                	ld	s0,16(sp)
   102ec:	64a2                	ld	s1,8(sp)
   102ee:	6902                	ld	s2,0(sp)
   102f0:	6105                	addi	sp,sp,32
   102f2:	8082                	ret

00000000000102f4 <memset>:
   102f4:	433d                	li	t1,15
   102f6:	872a                	mv	a4,a0
   102f8:	02c37163          	bgeu	t1,a2,1031a <memset+0x26>
   102fc:	00f77793          	andi	a5,a4,15
   10300:	e3c1                	bnez	a5,10380 <memset+0x8c>
   10302:	e1bd                	bnez	a1,10368 <memset+0x74>
   10304:	ff067693          	andi	a3,a2,-16
   10308:	8a3d                	andi	a2,a2,15
   1030a:	96ba                	add	a3,a3,a4
   1030c:	e30c                	sd	a1,0(a4)
   1030e:	e70c                	sd	a1,8(a4)
   10310:	0741                	addi	a4,a4,16
   10312:	fed76de3          	bltu	a4,a3,1030c <memset+0x18>
   10316:	e211                	bnez	a2,1031a <memset+0x26>
   10318:	8082                	ret
   1031a:	40c306b3          	sub	a3,t1,a2
   1031e:	068a                	slli	a3,a3,0x2
   10320:	00000297          	auipc	t0,0x0
   10324:	9696                	add	a3,a3,t0
   10326:	00a68067          	jr	10(a3)
   1032a:	00b70723          	sb	a1,14(a4)
   1032e:	00b706a3          	sb	a1,13(a4)
   10332:	00b70623          	sb	a1,12(a4)
   10336:	00b705a3          	sb	a1,11(a4)
   1033a:	00b70523          	sb	a1,10(a4)
   1033e:	00b704a3          	sb	a1,9(a4)
   10342:	00b70423          	sb	a1,8(a4)
   10346:	00b703a3          	sb	a1,7(a4)
   1034a:	00b70323          	sb	a1,6(a4)
   1034e:	00b702a3          	sb	a1,5(a4)
   10352:	00b70223          	sb	a1,4(a4)
   10356:	00b701a3          	sb	a1,3(a4)
   1035a:	00b70123          	sb	a1,2(a4)
   1035e:	00b700a3          	sb	a1,1(a4)
   10362:	00b70023          	sb	a1,0(a4)
   10366:	8082                	ret
   10368:	0ff5f593          	zext.b	a1,a1
   1036c:	00859693          	slli	a3,a1,0x8
   10370:	8dd5                	or	a1,a1,a3
   10372:	01059693          	slli	a3,a1,0x10
   10376:	8dd5                	or	a1,a1,a3
   10378:	02059693          	slli	a3,a1,0x20
   1037c:	8dd5                	or	a1,a1,a3
   1037e:	b759                	j	10304 <memset+0x10>
   10380:	00279693          	slli	a3,a5,0x2
   10384:	00000297          	auipc	t0,0x0
   10388:	9696                	add	a3,a3,t0
   1038a:	8286                	mv	t0,ra
   1038c:	fa2680e7          	jalr	-94(a3)
   10390:	8096                	mv	ra,t0
   10392:	17c1                	addi	a5,a5,-16
   10394:	8f1d                	sub	a4,a4,a5
   10396:	963e                	add	a2,a2,a5
   10398:	f8c371e3          	bgeu	t1,a2,1031a <memset+0x26>
   1039c:	b79d                	j	10302 <memset+0xe>

000000000001039e <_printf_r>:
   1039e:	715d                	addi	sp,sp,-80
   103a0:	f032                	sd	a2,32(sp)
   103a2:	f436                	sd	a3,40(sp)
   103a4:	f83a                	sd	a4,48(sp)
   103a6:	fc3e                	sd	a5,56(sp)
   103a8:	e0c2                	sd	a6,64(sp)
   103aa:	e4c6                	sd	a7,72(sp)
   103ac:	862e                	mv	a2,a1
   103ae:	690c                	ld	a1,16(a0)
   103b0:	1014                	addi	a3,sp,32
   103b2:	ec06                	sd	ra,24(sp)
   103b4:	e436                	sd	a3,8(sp)
   103b6:	14c000ef          	jal	ra,10502 <_vfprintf_r>
   103ba:	60e2                	ld	ra,24(sp)
   103bc:	6161                	addi	sp,sp,80
   103be:	8082                	ret

00000000000103c0 <printf>:
   103c0:	7581b303          	ld	t1,1880(gp) # 1f568 <_impure_ptr>
   103c4:	711d                	addi	sp,sp,-96
   103c6:	f832                	sd	a2,48(sp)
   103c8:	fc36                	sd	a3,56(sp)
   103ca:	f42e                	sd	a1,40(sp)
   103cc:	e0ba                	sd	a4,64(sp)
   103ce:	e4be                	sd	a5,72(sp)
   103d0:	e8c2                	sd	a6,80(sp)
   103d2:	ecc6                	sd	a7,88(sp)
   103d4:	01033583          	ld	a1,16(t1) # 10152 <add+0x6>
   103d8:	1034                	addi	a3,sp,40
   103da:	862a                	mv	a2,a0
   103dc:	851a                	mv	a0,t1
   103de:	ec06                	sd	ra,24(sp)
   103e0:	e436                	sd	a3,8(sp)
   103e2:	120000ef          	jal	ra,10502 <_vfprintf_r>
   103e6:	60e2                	ld	ra,24(sp)
   103e8:	6125                	addi	sp,sp,96
   103ea:	8082                	ret

00000000000103ec <_puts_r>:
   103ec:	7159                	addi	sp,sp,-112
   103ee:	f0a2                	sd	s0,96(sp)
   103f0:	842a                	mv	s0,a0
   103f2:	852e                	mv	a0,a1
   103f4:	eca6                	sd	s1,88(sp)
   103f6:	f486                	sd	ra,104(sp)
   103f8:	84ae                	mv	s1,a1
   103fa:	078000ef          	jal	ra,10472 <strlen>
   103fe:	67f1                	lui	a5,0x1c
   10400:	4c078793          	addi	a5,a5,1216 # 1c4c0 <__clzdi2+0x90>
   10404:	e0be                	sd	a5,64(sp)
   10406:	4785                	li	a5,1
   10408:	e4be                	sd	a5,72(sp)
   1040a:	4838                	lw	a4,80(s0)
   1040c:	181c                	addi	a5,sp,48
   1040e:	00150693          	addi	a3,a0,1
   10412:	ec3e                	sd	a5,24(sp)
   10414:	4789                	li	a5,2
   10416:	f826                	sd	s1,48(sp)
   10418:	fc2a                	sd	a0,56(sp)
   1041a:	f436                	sd	a3,40(sp)
   1041c:	d03e                	sw	a5,32(sp)
   1041e:	680c                	ld	a1,16(s0)
   10420:	cf0d                	beqz	a4,1045a <_puts_r+0x6e>
   10422:	01059783          	lh	a5,16(a1)
   10426:	03279713          	slli	a4,a5,0x32
   1042a:	00074d63          	bltz	a4,10444 <_puts_r+0x58>
   1042e:	0ac5a703          	lw	a4,172(a1)
   10432:	6689                	lui	a3,0x2
   10434:	8fd5                	or	a5,a5,a3
   10436:	76f9                	lui	a3,0xffffe
   10438:	16fd                	addi	a3,a3,-1
   1043a:	8f75                	and	a4,a4,a3
   1043c:	00f59823          	sh	a5,16(a1)
   10440:	0ae5a623          	sw	a4,172(a1)
   10444:	0830                	addi	a2,sp,24
   10446:	8522                	mv	a0,s0
   10448:	616020ef          	jal	ra,12a5e <__sfvwrite_r>
   1044c:	ed09                	bnez	a0,10466 <_puts_r+0x7a>
   1044e:	4529                	li	a0,10
   10450:	70a6                	ld	ra,104(sp)
   10452:	7406                	ld	s0,96(sp)
   10454:	64e6                	ld	s1,88(sp)
   10456:	6165                	addi	sp,sp,112
   10458:	8082                	ret
   1045a:	8522                	mv	a0,s0
   1045c:	e42e                	sd	a1,8(sp)
   1045e:	27e020ef          	jal	ra,126dc <__sinit>
   10462:	65a2                	ld	a1,8(sp)
   10464:	bf7d                	j	10422 <_puts_r+0x36>
   10466:	557d                	li	a0,-1
   10468:	b7e5                	j	10450 <_puts_r+0x64>

000000000001046a <puts>:
   1046a:	85aa                	mv	a1,a0
   1046c:	7581b503          	ld	a0,1880(gp) # 1f568 <_impure_ptr>
   10470:	bfb5                	j	103ec <_puts_r>

0000000000010472 <strlen>:
   10472:	00757793          	andi	a5,a0,7
   10476:	872a                	mv	a4,a0
   10478:	eba9                	bnez	a5,104ca <strlen+0x58>
   1047a:	7181b683          	ld	a3,1816(gp) # 1f528 <__SDATA_BEGIN__>
   1047e:	55fd                	li	a1,-1
   10480:	6310                	ld	a2,0(a4)
   10482:	0721                	addi	a4,a4,8
   10484:	00d677b3          	and	a5,a2,a3
   10488:	97b6                	add	a5,a5,a3
   1048a:	8fd1                	or	a5,a5,a2
   1048c:	8fd5                	or	a5,a5,a3
   1048e:	feb789e3          	beq	a5,a1,10480 <strlen+0xe>
   10492:	ff874683          	lbu	a3,-8(a4)
   10496:	40a707b3          	sub	a5,a4,a0
   1049a:	c6a9                	beqz	a3,104e4 <strlen+0x72>
   1049c:	ff974683          	lbu	a3,-7(a4)
   104a0:	ce9d                	beqz	a3,104de <strlen+0x6c>
   104a2:	ffa74683          	lbu	a3,-6(a4)
   104a6:	c6a9                	beqz	a3,104f0 <strlen+0x7e>
   104a8:	ffb74683          	lbu	a3,-5(a4)
   104ac:	ce9d                	beqz	a3,104ea <strlen+0x78>
   104ae:	ffc74683          	lbu	a3,-4(a4)
   104b2:	c2b1                	beqz	a3,104f6 <strlen+0x84>
   104b4:	ffd74683          	lbu	a3,-3(a4)
   104b8:	c2b1                	beqz	a3,104fc <strlen+0x8a>
   104ba:	ffe74503          	lbu	a0,-2(a4)
   104be:	00a03533          	snez	a0,a0
   104c2:	953e                	add	a0,a0,a5
   104c4:	1579                	addi	a0,a0,-2
   104c6:	8082                	ret
   104c8:	dacd                	beqz	a3,1047a <strlen+0x8>
   104ca:	00074783          	lbu	a5,0(a4)
   104ce:	0705                	addi	a4,a4,1
   104d0:	00777693          	andi	a3,a4,7
   104d4:	fbf5                	bnez	a5,104c8 <strlen+0x56>
   104d6:	8f09                	sub	a4,a4,a0
   104d8:	fff70513          	addi	a0,a4,-1
   104dc:	8082                	ret
   104de:	ff978513          	addi	a0,a5,-7
   104e2:	8082                	ret
   104e4:	ff878513          	addi	a0,a5,-8
   104e8:	8082                	ret
   104ea:	ffb78513          	addi	a0,a5,-5
   104ee:	8082                	ret
   104f0:	ffa78513          	addi	a0,a5,-6
   104f4:	8082                	ret
   104f6:	ffc78513          	addi	a0,a5,-4
   104fa:	8082                	ret
   104fc:	ffd78513          	addi	a0,a5,-3
   10500:	8082                	ret

0000000000010502 <_vfprintf_r>:
   10502:	d8010113          	addi	sp,sp,-640
   10506:	26113c23          	sd	ra,632(sp)
   1050a:	25613023          	sd	s6,576(sp)
   1050e:	23713c23          	sd	s7,568(sp)
   10512:	23813823          	sd	s8,560(sp)
   10516:	8bae                	mv	s7,a1
   10518:	8b32                	mv	s6,a2
   1051a:	e836                	sd	a3,16(sp)
   1051c:	26813823          	sd	s0,624(sp)
   10520:	26913423          	sd	s1,616(sp)
   10524:	27213023          	sd	s2,608(sp)
   10528:	25313c23          	sd	s3,600(sp)
   1052c:	25413823          	sd	s4,592(sp)
   10530:	25513423          	sd	s5,584(sp)
   10534:	23913423          	sd	s9,552(sp)
   10538:	23a13023          	sd	s10,544(sp)
   1053c:	21b13c23          	sd	s11,536(sp)
   10540:	8c2a                	mv	s8,a0
   10542:	171040ef          	jal	ra,14eb2 <_localeconv_r>
   10546:	611c                	ld	a5,0(a0)
   10548:	853e                	mv	a0,a5
   1054a:	e4be                	sd	a5,72(sp)
   1054c:	f27ff0ef          	jal	ra,10472 <strlen>
   10550:	e0aa                	sd	a0,64(sp)
   10552:	e202                	sd	zero,256(sp)
   10554:	e602                	sd	zero,264(sp)
   10556:	000c0663          	beqz	s8,10562 <_vfprintf_r+0x60>
   1055a:	050c2783          	lw	a5,80(s8)
   1055e:	46078363          	beqz	a5,109c4 <_vfprintf_r+0x4c2>
   10562:	010b9703          	lh	a4,16(s7)
   10566:	6689                	lui	a3,0x2
   10568:	03071793          	slli	a5,a4,0x30
   1056c:	93c1                	srli	a5,a5,0x30
   1056e:	00d7f633          	and	a2,a5,a3
   10572:	e215                	bnez	a2,10596 <_vfprintf_r+0x94>
   10574:	0acba603          	lw	a2,172(s7)
   10578:	00d767b3          	or	a5,a4,a3
   1057c:	0107979b          	slliw	a5,a5,0x10
   10580:	7779                	lui	a4,0xffffe
   10582:	4107d79b          	sraiw	a5,a5,0x10
   10586:	177d                	addi	a4,a4,-1
   10588:	8f71                	and	a4,a4,a2
   1058a:	00fb9823          	sh	a5,16(s7)
   1058e:	17c2                	slli	a5,a5,0x30
   10590:	0aeba623          	sw	a4,172(s7)
   10594:	93c1                	srli	a5,a5,0x30
   10596:	0087f713          	andi	a4,a5,8
   1059a:	26070d63          	beqz	a4,10814 <_vfprintf_r+0x312>
   1059e:	018bb703          	ld	a4,24(s7)
   105a2:	26070963          	beqz	a4,10814 <_vfprintf_r+0x312>
   105a6:	8be9                	andi	a5,a5,26
   105a8:	4729                	li	a4,10
   105aa:	28e78263          	beq	a5,a4,1082e <_vfprintf_r+0x32c>
   105ae:	67f1                	lui	a5,0x1c
   105b0:	7587b783          	ld	a5,1880(a5) # 1c758 <zeroes.0+0x18>
   105b4:	8d5a                	mv	s10,s6
   105b6:	f202                	sd	zero,288(sp)
   105b8:	e53e                	sd	a5,136(sp)
   105ba:	67f1                	lui	a5,0x1c
   105bc:	7687b783          	ld	a5,1896(a5) # 1c768 <zeroes.0+0x28>
   105c0:	10012c23          	sw	zero,280(sp)
   105c4:	f402                	sd	zero,40(sp)
   105c6:	e93e                	sd	a5,144(sp)
   105c8:	67f1                	lui	a5,0x1c
   105ca:	7787b783          	ld	a5,1912(a5) # 1c778 <zeroes.0+0x38>
   105ce:	e882                	sd	zero,80(sp)
   105d0:	ec82                	sd	zero,88(sp)
   105d2:	ed3e                	sd	a5,152(sp)
   105d4:	0b1c                	addi	a5,sp,400
   105d6:	ea3e                	sd	a5,272(sp)
   105d8:	833e                	mv	t1,a5
   105da:	000d4783          	lbu	a5,0(s10)
   105de:	f482                	sd	zero,104(sp)
   105e0:	e102                	sd	zero,128(sp)
   105e2:	f082                	sd	zero,96(sp)
   105e4:	e402                	sd	zero,8(sp)
   105e6:	1c078863          	beqz	a5,107b6 <_vfprintf_r+0x2b4>
   105ea:	846a                	mv	s0,s10
   105ec:	02500713          	li	a4,37
   105f0:	24e78b63          	beq	a5,a4,10846 <_vfprintf_r+0x344>
   105f4:	00144783          	lbu	a5,1(s0)
   105f8:	0405                	addi	s0,s0,1
   105fa:	fbfd                	bnez	a5,105f0 <_vfprintf_r+0xee>
   105fc:	41a404bb          	subw	s1,s0,s10
   10600:	1a048b63          	beqz	s1,107b6 <_vfprintf_r+0x2b4>
   10604:	11812783          	lw	a5,280(sp)
   10608:	7712                	ld	a4,288(sp)
   1060a:	01a33023          	sd	s10,0(t1)
   1060e:	2785                	addiw	a5,a5,1
   10610:	9726                	add	a4,a4,s1
   10612:	00933423          	sd	s1,8(t1)
   10616:	f23a                	sd	a4,288(sp)
   10618:	10f12c23          	sw	a5,280(sp)
   1061c:	0007871b          	sext.w	a4,a5
   10620:	479d                	li	a5,7
   10622:	0341                	addi	t1,t1,16
   10624:	22e7c863          	blt	a5,a4,10854 <_vfprintf_r+0x352>
   10628:	6722                	ld	a4,8(sp)
   1062a:	00044783          	lbu	a5,0(s0)
   1062e:	9f25                	addw	a4,a4,s1
   10630:	e43a                	sd	a4,8(sp)
   10632:	18078263          	beqz	a5,107b6 <_vfprintf_r+0x2b4>
   10636:	67f1                	lui	a5,0x1c
   10638:	00144e03          	lbu	t3,1(s0)
   1063c:	0c010fa3          	sb	zero,223(sp)
   10640:	0405                	addi	s0,s0,1
   10642:	5cfd                	li	s9,-1
   10644:	4901                	li	s2,0
   10646:	4481                	li	s1,0
   10648:	05a00993          	li	s3,90
   1064c:	52878a13          	addi	s4,a5,1320 # 1c528 <__clzdi2+0xf8>
   10650:	4b25                	li	s6,9
   10652:	8a9a                	mv	s5,t1
   10654:	0405                	addi	s0,s0,1
   10656:	000e0d9b          	sext.w	s11,t3
   1065a:	02a00693          	li	a3,42
   1065e:	fe0d879b          	addiw	a5,s11,-32
   10662:	0007871b          	sext.w	a4,a5
   10666:	04e9e363          	bltu	s3,a4,106ac <_vfprintf_r+0x1aa>
   1066a:	02079713          	slli	a4,a5,0x20
   1066e:	01e75793          	srli	a5,a4,0x1e
   10672:	97d2                	add	a5,a5,s4
   10674:	439c                	lw	a5,0(a5)
   10676:	8782                	jr	a5
   10678:	4901                	li	s2,0
   1067a:	00044703          	lbu	a4,0(s0)
   1067e:	0029179b          	slliw	a5,s2,0x2
   10682:	0127893b          	addw	s2,a5,s2
   10686:	fd0d8d9b          	addiw	s11,s11,-48
   1068a:	0019191b          	slliw	s2,s2,0x1
   1068e:	fd07079b          	addiw	a5,a4,-48
   10692:	012d893b          	addw	s2,s11,s2
   10696:	0405                	addi	s0,s0,1
   10698:	00070d9b          	sext.w	s11,a4
   1069c:	fcfb7fe3          	bgeu	s6,a5,1067a <_vfprintf_r+0x178>
   106a0:	fe0d879b          	addiw	a5,s11,-32
   106a4:	0007871b          	sext.w	a4,a5
   106a8:	fce9f1e3          	bgeu	s3,a4,1066a <_vfprintf_r+0x168>
   106ac:	8356                	mv	t1,s5
   106ae:	100d8463          	beqz	s11,107b6 <_vfprintf_r+0x2b4>
   106b2:	13b10423          	sb	s11,296(sp)
   106b6:	0c010fa3          	sb	zero,223(sp)
   106ba:	4985                	li	s3,1
   106bc:	4a05                	li	s4,1
   106be:	12810d13          	addi	s10,sp,296
   106c2:	ec02                	sd	zero,24(sp)
   106c4:	4c81                	li	s9,0
   106c6:	fc02                	sd	zero,56(sp)
   106c8:	f802                	sd	zero,48(sp)
   106ca:	f002                	sd	zero,32(sp)
   106cc:	0024fb13          	andi	s6,s1,2
   106d0:	000b0363          	beqz	s6,106d6 <_vfprintf_r+0x1d4>
   106d4:	2989                	addiw	s3,s3,2
   106d6:	0844fa93          	andi	s5,s1,132
   106da:	7792                	ld	a5,288(sp)
   106dc:	000a9663          	bnez	s5,106e8 <_vfprintf_r+0x1e6>
   106e0:	413906bb          	subw	a3,s2,s3
   106e4:	00d04fe3          	bgtz	a3,10f02 <_vfprintf_r+0xa00>
   106e8:	0df14703          	lbu	a4,223(sp)
   106ec:	c70d                	beqz	a4,10716 <_vfprintf_r+0x214>
   106ee:	11812703          	lw	a4,280(sp)
   106f2:	0df10693          	addi	a3,sp,223
   106f6:	00d33023          	sd	a3,0(t1)
   106fa:	2705                	addiw	a4,a4,1
   106fc:	4685                	li	a3,1
   106fe:	0785                	addi	a5,a5,1
   10700:	00d33423          	sd	a3,8(t1)
   10704:	10e12c23          	sw	a4,280(sp)
   10708:	0007069b          	sext.w	a3,a4
   1070c:	f23e                	sd	a5,288(sp)
   1070e:	471d                	li	a4,7
   10710:	0341                	addi	t1,t1,16
   10712:	1cd74e63          	blt	a4,a3,108ee <_vfprintf_r+0x3ec>
   10716:	020b0563          	beqz	s6,10740 <_vfprintf_r+0x23e>
   1071a:	11812703          	lw	a4,280(sp)
   1071e:	1194                	addi	a3,sp,224
   10720:	00d33023          	sd	a3,0(t1)
   10724:	2705                	addiw	a4,a4,1
   10726:	4689                	li	a3,2
   10728:	0789                	addi	a5,a5,2
   1072a:	00d33423          	sd	a3,8(t1)
   1072e:	10e12c23          	sw	a4,280(sp)
   10732:	0007069b          	sext.w	a3,a4
   10736:	f23e                	sd	a5,288(sp)
   10738:	471d                	li	a4,7
   1073a:	0341                	addi	t1,t1,16
   1073c:	08d742e3          	blt	a4,a3,10fc0 <_vfprintf_r+0xabe>
   10740:	08000713          	li	a4,128
   10744:	68ea8a63          	beq	s5,a4,10dd8 <_vfprintf_r+0x8d6>
   10748:	414c8cbb          	subw	s9,s9,s4
   1074c:	71904c63          	bgtz	s9,10e64 <_vfprintf_r+0x962>
   10750:	1004f713          	andi	a4,s1,256
   10754:	5a071963          	bnez	a4,10d06 <_vfprintf_r+0x804>
   10758:	11812703          	lw	a4,280(sp)
   1075c:	97d2                	add	a5,a5,s4
   1075e:	01a33023          	sd	s10,0(t1)
   10762:	0017069b          	addiw	a3,a4,1
   10766:	8736                	mv	a4,a3
   10768:	01433423          	sd	s4,8(t1)
   1076c:	10e12c23          	sw	a4,280(sp)
   10770:	f23e                	sd	a5,288(sp)
   10772:	471d                	li	a4,7
   10774:	22d74d63          	blt	a4,a3,109ae <_vfprintf_r+0x4ac>
   10778:	0341                	addi	t1,t1,16
   1077a:	8891                	andi	s1,s1,4
   1077c:	c489                	beqz	s1,10786 <_vfprintf_r+0x284>
   1077e:	413904bb          	subw	s1,s2,s3
   10782:	04904ae3          	bgtz	s1,10fd6 <_vfprintf_r+0xad4>
   10786:	874a                	mv	a4,s2
   10788:	01395363          	bge	s2,s3,1078e <_vfprintf_r+0x28c>
   1078c:	874e                	mv	a4,s3
   1078e:	66a2                	ld	a3,8(sp)
   10790:	9f35                	addw	a4,a4,a3
   10792:	e43a                	sd	a4,8(sp)
   10794:	74079963          	bnez	a5,10ee6 <_vfprintf_r+0x9e4>
   10798:	67e2                	ld	a5,24(sp)
   1079a:	10012c23          	sw	zero,280(sp)
   1079e:	c789                	beqz	a5,107a8 <_vfprintf_r+0x2a6>
   107a0:	65e2                	ld	a1,24(sp)
   107a2:	8562                	mv	a0,s8
   107a4:	068020ef          	jal	ra,1280c <_free_r>
   107a8:	19010313          	addi	t1,sp,400
   107ac:	8d22                	mv	s10,s0
   107ae:	000d4783          	lbu	a5,0(s10)
   107b2:	e2079ce3          	bnez	a5,105ea <_vfprintf_r+0xe8>
   107b6:	7792                	ld	a5,288(sp)
   107b8:	c399                	beqz	a5,107be <_vfprintf_r+0x2bc>
   107ba:	3520106f          	j	11b0c <_vfprintf_r+0x160a>
   107be:	010bd783          	lhu	a5,16(s7)
   107c2:	0407f793          	andi	a5,a5,64
   107c6:	c399                	beqz	a5,107cc <_vfprintf_r+0x2ca>
   107c8:	6040106f          	j	11dcc <_vfprintf_r+0x18ca>
   107cc:	27813083          	ld	ra,632(sp)
   107d0:	27013403          	ld	s0,624(sp)
   107d4:	6522                	ld	a0,8(sp)
   107d6:	26813483          	ld	s1,616(sp)
   107da:	26013903          	ld	s2,608(sp)
   107de:	25813983          	ld	s3,600(sp)
   107e2:	25013a03          	ld	s4,592(sp)
   107e6:	24813a83          	ld	s5,584(sp)
   107ea:	24013b03          	ld	s6,576(sp)
   107ee:	23813b83          	ld	s7,568(sp)
   107f2:	23013c03          	ld	s8,560(sp)
   107f6:	22813c83          	ld	s9,552(sp)
   107fa:	22013d03          	ld	s10,544(sp)
   107fe:	21813d83          	ld	s11,536(sp)
   10802:	28010113          	addi	sp,sp,640
   10806:	8082                	ret
   10808:	0104e493          	ori	s1,s1,16
   1080c:	00044e03          	lbu	t3,0(s0)
   10810:	2481                	sext.w	s1,s1
   10812:	b589                	j	10654 <_vfprintf_r+0x152>
   10814:	85de                	mv	a1,s7
   10816:	8562                	mv	a0,s8
   10818:	097010ef          	jal	ra,120ae <__swsetup_r>
   1081c:	c119                	beqz	a0,10822 <_vfprintf_r+0x320>
   1081e:	5ae0106f          	j	11dcc <_vfprintf_r+0x18ca>
   10822:	010bd783          	lhu	a5,16(s7)
   10826:	4729                	li	a4,10
   10828:	8be9                	andi	a5,a5,26
   1082a:	d8e792e3          	bne	a5,a4,105ae <_vfprintf_r+0xac>
   1082e:	012b9783          	lh	a5,18(s7)
   10832:	d607cee3          	bltz	a5,105ae <_vfprintf_r+0xac>
   10836:	66c2                	ld	a3,16(sp)
   10838:	865a                	mv	a2,s6
   1083a:	85de                	mv	a1,s7
   1083c:	8562                	mv	a0,s8
   1083e:	7dc010ef          	jal	ra,1201a <__sbprintf>
   10842:	e42a                	sd	a0,8(sp)
   10844:	b761                	j	107cc <_vfprintf_r+0x2ca>
   10846:	41a404bb          	subw	s1,s0,s10
   1084a:	da049de3          	bnez	s1,10604 <_vfprintf_r+0x102>
   1084e:	00044783          	lbu	a5,0(s0)
   10852:	b3c5                	j	10632 <_vfprintf_r+0x130>
   10854:	0a10                	addi	a2,sp,272
   10856:	85de                	mv	a1,s7
   10858:	8562                	mv	a0,s8
   1085a:	162080ef          	jal	ra,189bc <__sprint_r>
   1085e:	f125                	bnez	a0,107be <_vfprintf_r+0x2bc>
   10860:	19010313          	addi	t1,sp,400
   10864:	b3d1                	j	10628 <_vfprintf_r+0x126>
   10866:	0084f793          	andi	a5,s1,8
   1086a:	8356                	mv	t1,s5
   1086c:	240797e3          	bnez	a5,112ba <_vfprintf_r+0xdb8>
   10870:	67c2                	ld	a5,16(sp)
   10872:	ec56                	sd	s5,24(sp)
   10874:	6388                	ld	a0,0(a5)
   10876:	00878a93          	addi	s5,a5,8
   1087a:	e856                	sd	s5,16(sp)
   1087c:	1dd0b0ef          	jal	ra,1c258 <__extenddftf2>
   10880:	6362                	ld	t1,24(sp)
   10882:	87aa                	mv	a5,a0
   10884:	0208                	addi	a0,sp,256
   10886:	ec1a                	sd	t1,24(sp)
   10888:	e23e                	sd	a5,256(sp)
   1088a:	e62e                	sd	a1,264(sp)
   1088c:	5de040ef          	jal	ra,14e6a <_ldcheck>
   10890:	d5aa                	sw	a0,232(sp)
   10892:	4789                	li	a5,2
   10894:	6362                	ld	t1,24(sp)
   10896:	5af50fe3          	beq	a0,a5,11654 <_vfprintf_r+0x1152>
   1089a:	4785                	li	a5,1
   1089c:	72f506e3          	beq	a0,a5,117c8 <_vfprintf_r+0x12c6>
   108a0:	06100793          	li	a5,97
   108a4:	32fd8fe3          	beq	s11,a5,113e2 <_vfprintf_r+0xee0>
   108a8:	04100793          	li	a5,65
   108ac:	05800713          	li	a4,88
   108b0:	32fd8be3          	beq	s11,a5,113e6 <_vfprintf_r+0xee4>
   108b4:	fdfdf713          	andi	a4,s11,-33
   108b8:	57fd                	li	a5,-1
   108ba:	f83a                	sd	a4,48(sp)
   108bc:	00fc9463          	bne	s9,a5,108c4 <_vfprintf_r+0x3c2>
   108c0:	60e0106f          	j	11ece <_vfprintf_r+0x19cc>
   108c4:	04700793          	li	a5,71
   108c8:	00f71463          	bne	a4,a5,108d0 <_vfprintf_r+0x3ce>
   108cc:	5f40106f          	j	11ec0 <_vfprintf_r+0x19be>
   108d0:	69b2                	ld	s3,264(sp)
   108d2:	1004e793          	ori	a5,s1,256
   108d6:	fc26                	sd	s1,56(sp)
   108d8:	6a12                	ld	s4,256(sp)
   108da:	2781                	sext.w	a5,a5
   108dc:	0009d463          	bgez	s3,108e4 <_vfprintf_r+0x3e2>
   108e0:	23a0106f          	j	11b1a <_vfprintf_r+0x1618>
   108e4:	f882                	sd	zero,112(sp)
   108e6:	84be                	mv	s1,a5
   108e8:	ec02                	sd	zero,24(sp)
   108ea:	33d0006f          	j	11426 <_vfprintf_r+0xf24>
   108ee:	0a10                	addi	a2,sp,272
   108f0:	85de                	mv	a1,s7
   108f2:	8562                	mv	a0,s8
   108f4:	0c8080ef          	jal	ra,189bc <__sprint_r>
   108f8:	5e051e63          	bnez	a0,10ef4 <_vfprintf_r+0x9f2>
   108fc:	7792                	ld	a5,288(sp)
   108fe:	19010313          	addi	t1,sp,400
   10902:	bd11                	j	10716 <_vfprintf_r+0x214>
   10904:	11812703          	lw	a4,280(sp)
   10908:	00178c93          	addi	s9,a5,1
   1090c:	77a2                	ld	a5,40(sp)
   1090e:	00170a1b          	addiw	s4,a4,1
   10912:	4685                	li	a3,1
   10914:	01a33023          	sd	s10,0(t1)
   10918:	8752                	mv	a4,s4
   1091a:	01030b13          	addi	s6,t1,16
   1091e:	06f6d3e3          	bge	a3,a5,11184 <_vfprintf_r+0xc82>
   10922:	4685                	li	a3,1
   10924:	10e12c23          	sw	a4,280(sp)
   10928:	00d33423          	sd	a3,8(t1)
   1092c:	f266                	sd	s9,288(sp)
   1092e:	471d                	li	a4,7
   10930:	3f4748e3          	blt	a4,s4,11520 <_vfprintf_r+0x101e>
   10934:	6786                	ld	a5,64(sp)
   10936:	66a6                	ld	a3,72(sp)
   10938:	2a05                	addiw	s4,s4,1
   1093a:	9cbe                	add	s9,s9,a5
   1093c:	00db3023          	sd	a3,0(s6)
   10940:	00fb3423          	sd	a5,8(s6)
   10944:	f266                	sd	s9,288(sp)
   10946:	11412c23          	sw	s4,280(sp)
   1094a:	471d                	li	a4,7
   1094c:	0b41                	addi	s6,s6,16
   1094e:	3f4747e3          	blt	a4,s4,1153c <_vfprintf_r+0x103a>
   10952:	6512                	ld	a0,256(sp)
   10954:	65b2                	ld	a1,264(sp)
   10956:	4601                	li	a2,0
   10958:	4681                	li	a3,0
   1095a:	3c30a0ef          	jal	ra,1b51c <__eqtf2>
   1095e:	77a2                	ld	a5,40(sp)
   10960:	fff78d9b          	addiw	s11,a5,-1
   10964:	04050ae3          	beqz	a0,111b8 <_vfprintf_r+0xcb6>
   10968:	2a05                	addiw	s4,s4,1
   1096a:	001d0813          	addi	a6,s10,1
   1096e:	86d2                	mv	a3,s4
   10970:	9cee                	add	s9,s9,s11
   10972:	010b3023          	sd	a6,0(s6)
   10976:	01bb3423          	sd	s11,8(s6)
   1097a:	f266                	sd	s9,288(sp)
   1097c:	10d12c23          	sw	a3,280(sp)
   10980:	471d                	li	a4,7
   10982:	0b41                	addi	s6,s6,16
   10984:	01474ce3          	blt	a4,s4,1119c <_vfprintf_r+0xc9a>
   10988:	66e6                	ld	a3,88(sp)
   1098a:	2a05                	addiw	s4,s4,1
   1098c:	1998                	addi	a4,sp,240
   1098e:	019687b3          	add	a5,a3,s9
   10992:	00eb3023          	sd	a4,0(s6)
   10996:	00db3423          	sd	a3,8(s6)
   1099a:	f23e                	sd	a5,288(sp)
   1099c:	000a069b          	sext.w	a3,s4
   109a0:	11412c23          	sw	s4,280(sp)
   109a4:	471d                	li	a4,7
   109a6:	010b0313          	addi	t1,s6,16
   109aa:	dcd758e3          	bge	a4,a3,1077a <_vfprintf_r+0x278>
   109ae:	0a10                	addi	a2,sp,272
   109b0:	85de                	mv	a1,s7
   109b2:	8562                	mv	a0,s8
   109b4:	008080ef          	jal	ra,189bc <__sprint_r>
   109b8:	52051e63          	bnez	a0,10ef4 <_vfprintf_r+0x9f2>
   109bc:	7792                	ld	a5,288(sp)
   109be:	19010313          	addi	t1,sp,400
   109c2:	bb65                	j	1077a <_vfprintf_r+0x278>
   109c4:	8562                	mv	a0,s8
   109c6:	517010ef          	jal	ra,126dc <__sinit>
   109ca:	be61                	j	10562 <_vfprintf_r+0x60>
   109cc:	6742                	ld	a4,16(sp)
   109ce:	8356                	mv	t1,s5
   109d0:	0c010fa3          	sb	zero,223(sp)
   109d4:	431c                	lw	a5,0(a4)
   109d6:	0721                	addi	a4,a4,8
   109d8:	e83a                	sd	a4,16(sp)
   109da:	12f10423          	sb	a5,296(sp)
   109de:	4985                	li	s3,1
   109e0:	4a05                	li	s4,1
   109e2:	12810d13          	addi	s10,sp,296
   109e6:	b9f1                	j	106c2 <_vfprintf_r+0x1c0>
   109e8:	67c2                	ld	a5,16(sp)
   109ea:	0c010fa3          	sb	zero,223(sp)
   109ee:	8356                	mv	t1,s5
   109f0:	0007bd03          	ld	s10,0(a5)
   109f4:	00878a93          	addi	s5,a5,8
   109f8:	180d02e3          	beqz	s10,1137c <_vfprintf_r+0xe7a>
   109fc:	57fd                	li	a5,-1
   109fe:	48fc8be3          	beq	s9,a5,11694 <_vfprintf_r+0x1192>
   10a02:	8666                	mv	a2,s9
   10a04:	4581                	li	a1,0
   10a06:	856a                	mv	a0,s10
   10a08:	e81a                	sd	t1,16(sp)
   10a0a:	54b040ef          	jal	ra,15754 <memchr>
   10a0e:	ec2a                	sd	a0,24(sp)
   10a10:	6342                	ld	t1,16(sp)
   10a12:	e119                	bnez	a0,10a18 <_vfprintf_r+0x516>
   10a14:	3260106f          	j	11d3a <_vfprintf_r+0x1838>
   10a18:	67e2                	ld	a5,24(sp)
   10a1a:	e856                	sd	s5,16(sp)
   10a1c:	ec02                	sd	zero,24(sp)
   10a1e:	41a78a3b          	subw	s4,a5,s10
   10a22:	0df14783          	lbu	a5,223(sp)
   10a26:	fffa4993          	not	s3,s4
   10a2a:	43f9d993          	srai	s3,s3,0x3f
   10a2e:	fc02                	sd	zero,56(sp)
   10a30:	f802                	sd	zero,48(sp)
   10a32:	f002                	sd	zero,32(sp)
   10a34:	0149f9b3          	and	s3,s3,s4
   10a38:	4c81                	li	s9,0
   10a3a:	c80789e3          	beqz	a5,106cc <_vfprintf_r+0x1ca>
   10a3e:	2985                	addiw	s3,s3,1
   10a40:	b171                	j	106cc <_vfprintf_r+0x1ca>
   10a42:	67c2                	ld	a5,16(sp)
   10a44:	0007a903          	lw	s2,0(a5)
   10a48:	07a1                	addi	a5,a5,8
   10a4a:	02095de3          	bgez	s2,11284 <_vfprintf_r+0xd82>
   10a4e:	4120093b          	negw	s2,s2
   10a52:	e83e                	sd	a5,16(sp)
   10a54:	0044e493          	ori	s1,s1,4
   10a58:	00044e03          	lbu	t3,0(s0)
   10a5c:	2481                	sext.w	s1,s1
   10a5e:	bedd                	j	10654 <_vfprintf_r+0x152>
   10a60:	02b00793          	li	a5,43
   10a64:	00044e03          	lbu	t3,0(s0)
   10a68:	0cf10fa3          	sb	a5,223(sp)
   10a6c:	b6e5                	j	10654 <_vfprintf_r+0x152>
   10a6e:	0804e493          	ori	s1,s1,128
   10a72:	00044e03          	lbu	t3,0(s0)
   10a76:	2481                	sext.w	s1,s1
   10a78:	bef1                	j	10654 <_vfprintf_r+0x152>
   10a7a:	00044d83          	lbu	s11,0(s0)
   10a7e:	00140793          	addi	a5,s0,1
   10a82:	00dd9463          	bne	s11,a3,10a8a <_vfprintf_r+0x588>
   10a86:	51e0106f          	j	11fa4 <_vfprintf_r+0x1aa2>
   10a8a:	fd0d871b          	addiw	a4,s11,-48
   10a8e:	843e                	mv	s0,a5
   10a90:	4c81                	li	s9,0
   10a92:	bceb66e3          	bltu	s6,a4,1065e <_vfprintf_r+0x15c>
   10a96:	00044d83          	lbu	s11,0(s0)
   10a9a:	002c979b          	slliw	a5,s9,0x2
   10a9e:	01978cbb          	addw	s9,a5,s9
   10aa2:	001c9c9b          	slliw	s9,s9,0x1
   10aa6:	00ec8cbb          	addw	s9,s9,a4
   10aaa:	fd0d871b          	addiw	a4,s11,-48
   10aae:	0405                	addi	s0,s0,1
   10ab0:	feeb73e3          	bgeu	s6,a4,10a96 <_vfprintf_r+0x594>
   10ab4:	b66d                	j	1065e <_vfprintf_r+0x15c>
   10ab6:	8562                	mv	a0,s8
   10ab8:	3fa040ef          	jal	ra,14eb2 <_localeconv_r>
   10abc:	651c                	ld	a5,8(a0)
   10abe:	853e                	mv	a0,a5
   10ac0:	f0be                	sd	a5,96(sp)
   10ac2:	9b1ff0ef          	jal	ra,10472 <strlen>
   10ac6:	87aa                	mv	a5,a0
   10ac8:	8562                	mv	a0,s8
   10aca:	8dbe                	mv	s11,a5
   10acc:	e13e                	sd	a5,128(sp)
   10ace:	3e4040ef          	jal	ra,14eb2 <_localeconv_r>
   10ad2:	691c                	ld	a5,16(a0)
   10ad4:	00044e03          	lbu	t3,0(s0)
   10ad8:	f4be                	sd	a5,104(sp)
   10ada:	b60d8de3          	beqz	s11,10654 <_vfprintf_r+0x152>
   10ade:	b6078be3          	beqz	a5,10654 <_vfprintf_r+0x152>
   10ae2:	0007c783          	lbu	a5,0(a5)
   10ae6:	b60787e3          	beqz	a5,10654 <_vfprintf_r+0x152>
   10aea:	4004e493          	ori	s1,s1,1024
   10aee:	2481                	sext.w	s1,s1
   10af0:	b695                	j	10654 <_vfprintf_r+0x152>
   10af2:	0014e493          	ori	s1,s1,1
   10af6:	00044e03          	lbu	t3,0(s0)
   10afa:	2481                	sext.w	s1,s1
   10afc:	bea1                	j	10654 <_vfprintf_r+0x152>
   10afe:	0df14783          	lbu	a5,223(sp)
   10b02:	00044e03          	lbu	t3,0(s0)
   10b06:	b40797e3          	bnez	a5,10654 <_vfprintf_r+0x152>
   10b0a:	02000793          	li	a5,32
   10b0e:	0cf10fa3          	sb	a5,223(sp)
   10b12:	b689                	j	10654 <_vfprintf_r+0x152>
   10b14:	0104eb13          	ori	s6,s1,16
   10b18:	8356                	mv	t1,s5
   10b1a:	2b01                	sext.w	s6,s6
   10b1c:	66c2                	ld	a3,16(sp)
   10b1e:	020b7793          	andi	a5,s6,32
   10b22:	00868713          	addi	a4,a3,8 # 2008 <register_fini-0xe0a8>
   10b26:	70078a63          	beqz	a5,1123a <_vfprintf_r+0xd38>
   10b2a:	0006b983          	ld	s3,0(a3)
   10b2e:	4785                	li	a5,1
   10b30:	e83a                	sd	a4,16(sp)
   10b32:	4701                	li	a4,0
   10b34:	0ce10fa3          	sb	a4,223(sp)
   10b38:	577d                	li	a4,-1
   10b3a:	14ec8563          	beq	s9,a4,10c84 <_vfprintf_r+0x782>
   10b3e:	f7fb7493          	andi	s1,s6,-129
   10b42:	2481                	sext.w	s1,s1
   10b44:	12099f63          	bnez	s3,10c82 <_vfprintf_r+0x780>
   10b48:	180c9263          	bnez	s9,10ccc <_vfprintf_r+0x7ca>
   10b4c:	e7bd                	bnez	a5,10bba <_vfprintf_r+0x6b8>
   10b4e:	001b7a13          	andi	s4,s6,1
   10b52:	18c10d13          	addi	s10,sp,396
   10b56:	720a1c63          	bnez	s4,1128e <_vfprintf_r+0xd8c>
   10b5a:	0df14783          	lbu	a5,223(sp)
   10b5e:	000a099b          	sext.w	s3,s4
   10b62:	019a5463          	bge	s4,s9,10b6a <_vfprintf_r+0x668>
   10b66:	000c899b          	sext.w	s3,s9
   10b6a:	ec02                	sd	zero,24(sp)
   10b6c:	fc02                	sd	zero,56(sp)
   10b6e:	f802                	sd	zero,48(sp)
   10b70:	f002                	sd	zero,32(sp)
   10b72:	ec0796e3          	bnez	a5,10a3e <_vfprintf_r+0x53c>
   10b76:	be99                	j	106cc <_vfprintf_r+0x1ca>
   10b78:	0084e493          	ori	s1,s1,8
   10b7c:	00044e03          	lbu	t3,0(s0)
   10b80:	2481                	sext.w	s1,s1
   10b82:	bcc9                	j	10654 <_vfprintf_r+0x152>
   10b84:	0104e493          	ori	s1,s1,16
   10b88:	8356                	mv	t1,s5
   10b8a:	2481                	sext.w	s1,s1
   10b8c:	66c2                	ld	a3,16(sp)
   10b8e:	0204f793          	andi	a5,s1,32
   10b92:	00868713          	addi	a4,a3,8
   10b96:	66078963          	beqz	a5,11208 <_vfprintf_r+0xd06>
   10b9a:	629c                	ld	a5,0(a3)
   10b9c:	89be                	mv	s3,a5
   10b9e:	6807c663          	bltz	a5,1122a <_vfprintf_r+0xd28>
   10ba2:	57fd                	li	a5,-1
   10ba4:	40fc8063          	beq	s9,a5,10fa4 <_vfprintf_r+0xaa2>
   10ba8:	f7f4fb13          	andi	s6,s1,-129
   10bac:	e83a                	sd	a4,16(sp)
   10bae:	2b01                	sext.w	s6,s6
   10bb0:	3e099c63          	bnez	s3,10fa8 <_vfprintf_r+0xaa6>
   10bb4:	3e0c9d63          	bnez	s9,10fae <_vfprintf_r+0xaac>
   10bb8:	84da                	mv	s1,s6
   10bba:	4c81                	li	s9,0
   10bbc:	4a01                	li	s4,0
   10bbe:	18c10d13          	addi	s10,sp,396
   10bc2:	bf61                	j	10b5a <_vfprintf_r+0x658>
   10bc4:	0104e493          	ori	s1,s1,16
   10bc8:	8356                	mv	t1,s5
   10bca:	2481                	sext.w	s1,s1
   10bcc:	66c2                	ld	a3,16(sp)
   10bce:	0204f793          	andi	a5,s1,32
   10bd2:	00868713          	addi	a4,a3,8
   10bd6:	68078263          	beqz	a5,1125a <_vfprintf_r+0xd58>
   10bda:	0006b983          	ld	s3,0(a3)
   10bde:	bff4fb13          	andi	s6,s1,-1025
   10be2:	2b01                	sext.w	s6,s6
   10be4:	e83a                	sd	a4,16(sp)
   10be6:	4781                	li	a5,0
   10be8:	b7a9                	j	10b32 <_vfprintf_r+0x630>
   10bea:	0204e493          	ori	s1,s1,32
   10bee:	00044e03          	lbu	t3,0(s0)
   10bf2:	2481                	sext.w	s1,s1
   10bf4:	b485                	j	10654 <_vfprintf_r+0x152>
   10bf6:	66c2                	ld	a3,16(sp)
   10bf8:	0204f793          	andi	a5,s1,32
   10bfc:	8356                	mv	t1,s5
   10bfe:	6298                	ld	a4,0(a3)
   10c00:	06a1                	addi	a3,a3,8
   10c02:	e836                	sd	a3,16(sp)
   10c04:	68079c63          	bnez	a5,1129c <_vfprintf_r+0xd9a>
   10c08:	0104f793          	andi	a5,s1,16
   10c0c:	68079863          	bnez	a5,1129c <_vfprintf_r+0xd9a>
   10c10:	0404f793          	andi	a5,s1,64
   10c14:	6e0791e3          	bnez	a5,11af6 <_vfprintf_r+0x15f4>
   10c18:	2004f493          	andi	s1,s1,512
   10c1c:	67a2                	ld	a5,8(sp)
   10c1e:	e099                	bnez	s1,10c24 <_vfprintf_r+0x722>
   10c20:	2980106f          	j	11eb8 <_vfprintf_r+0x19b6>
   10c24:	00f70023          	sb	a5,0(a4) # ffffffffffffe000 <__BSS_END__+0xfffffffffffde9f0>
   10c28:	8d22                	mv	s10,s0
   10c2a:	b651                	j	107ae <_vfprintf_r+0x2ac>
   10c2c:	00044e03          	lbu	t3,0(s0)
   10c30:	06c00793          	li	a5,108
   10c34:	72fe0c63          	beq	t3,a5,1136c <_vfprintf_r+0xe6a>
   10c38:	0104e493          	ori	s1,s1,16
   10c3c:	2481                	sext.w	s1,s1
   10c3e:	bc19                	j	10654 <_vfprintf_r+0x152>
   10c40:	00044e03          	lbu	t3,0(s0)
   10c44:	06800793          	li	a5,104
   10c48:	70fe0a63          	beq	t3,a5,1135c <_vfprintf_r+0xe5a>
   10c4c:	0404e493          	ori	s1,s1,64
   10c50:	2481                	sext.w	s1,s1
   10c52:	b409                	j	10654 <_vfprintf_r+0x152>
   10c54:	6742                	ld	a4,16(sp)
   10c56:	77e1                	lui	a5,0xffff8
   10c58:	8307c793          	xori	a5,a5,-2000
   10c5c:	0ef11023          	sh	a5,224(sp)
   10c60:	00870793          	addi	a5,a4,8
   10c64:	e83e                	sd	a5,16(sp)
   10c66:	67f1                	lui	a5,0x1c
   10c68:	4e878793          	addi	a5,a5,1256 # 1c4e8 <__clzdi2+0xb8>
   10c6c:	0024eb13          	ori	s6,s1,2
   10c70:	e8be                	sd	a5,80(sp)
   10c72:	00073983          	ld	s3,0(a4)
   10c76:	8356                	mv	t1,s5
   10c78:	2b01                	sext.w	s6,s6
   10c7a:	4789                	li	a5,2
   10c7c:	07800d93          	li	s11,120
   10c80:	bd4d                	j	10b32 <_vfprintf_r+0x630>
   10c82:	8b26                	mv	s6,s1
   10c84:	4705                	li	a4,1
   10c86:	32e78163          	beq	a5,a4,10fa8 <_vfprintf_r+0xaa6>
   10c8a:	4709                	li	a4,2
   10c8c:	04e78963          	beq	a5,a4,10cde <_vfprintf_r+0x7dc>
   10c90:	18c10a13          	addi	s4,sp,396
   10c94:	8d52                	mv	s10,s4
   10c96:	0079f793          	andi	a5,s3,7
   10c9a:	03078793          	addi	a5,a5,48
   10c9e:	fefd0fa3          	sb	a5,-1(s10)
   10ca2:	0039d993          	srli	s3,s3,0x3
   10ca6:	876a                	mv	a4,s10
   10ca8:	1d7d                	addi	s10,s10,-1
   10caa:	fe0996e3          	bnez	s3,10c96 <_vfprintf_r+0x794>
   10cae:	001b7693          	andi	a3,s6,1
   10cb2:	c6b1                	beqz	a3,10cfe <_vfprintf_r+0x7fc>
   10cb4:	03000693          	li	a3,48
   10cb8:	04d78363          	beq	a5,a3,10cfe <_vfprintf_r+0x7fc>
   10cbc:	1779                	addi	a4,a4,-2
   10cbe:	fedd0fa3          	sb	a3,-1(s10)
   10cc2:	40ea0a3b          	subw	s4,s4,a4
   10cc6:	84da                	mv	s1,s6
   10cc8:	8d3a                	mv	s10,a4
   10cca:	bd41                	j	10b5a <_vfprintf_r+0x658>
   10ccc:	4705                	li	a4,1
   10cce:	00e79463          	bne	a5,a4,10cd6 <_vfprintf_r+0x7d4>
   10cd2:	1880106f          	j	11e5a <_vfprintf_r+0x1958>
   10cd6:	4709                	li	a4,2
   10cd8:	8b26                	mv	s6,s1
   10cda:	fae79be3          	bne	a5,a4,10c90 <_vfprintf_r+0x78e>
   10cde:	6746                	ld	a4,80(sp)
   10ce0:	18c10a13          	addi	s4,sp,396
   10ce4:	8d52                	mv	s10,s4
   10ce6:	00f9f793          	andi	a5,s3,15
   10cea:	97ba                	add	a5,a5,a4
   10cec:	0007c783          	lbu	a5,0(a5)
   10cf0:	0049d993          	srli	s3,s3,0x4
   10cf4:	1d7d                	addi	s10,s10,-1
   10cf6:	00fd0023          	sb	a5,0(s10)
   10cfa:	fe0996e3          	bnez	s3,10ce6 <_vfprintf_r+0x7e4>
   10cfe:	41aa0a3b          	subw	s4,s4,s10
   10d02:	84da                	mv	s1,s6
   10d04:	bd99                	j	10b5a <_vfprintf_r+0x658>
   10d06:	06500713          	li	a4,101
   10d0a:	bfb75de3          	bge	a4,s11,10904 <_vfprintf_r+0x402>
   10d0e:	6512                	ld	a0,256(sp)
   10d10:	65b2                	ld	a1,264(sp)
   10d12:	4601                	li	a2,0
   10d14:	4681                	li	a3,0
   10d16:	fc9a                	sd	t1,120(sp)
   10d18:	f8be                	sd	a5,112(sp)
   10d1a:	0030a0ef          	jal	ra,1b51c <__eqtf2>
   10d1e:	77c6                	ld	a5,112(sp)
   10d20:	7366                	ld	t1,120(sp)
   10d22:	32051c63          	bnez	a0,1105a <_vfprintf_r+0xb58>
   10d26:	11812703          	lw	a4,280(sp)
   10d2a:	66f1                	lui	a3,0x1c
   10d2c:	52068693          	addi	a3,a3,1312 # 1c520 <__clzdi2+0xf0>
   10d30:	2705                	addiw	a4,a4,1
   10d32:	00d33023          	sd	a3,0(t1)
   10d36:	0785                	addi	a5,a5,1
   10d38:	4685                	li	a3,1
   10d3a:	00d33423          	sd	a3,8(t1)
   10d3e:	10e12c23          	sw	a4,280(sp)
   10d42:	0007069b          	sext.w	a3,a4
   10d46:	f23e                	sd	a5,288(sp)
   10d48:	471d                	li	a4,7
   10d4a:	0341                	addi	t1,t1,16
   10d4c:	0ed740e3          	blt	a4,a3,1162c <_vfprintf_r+0x112a>
   10d50:	572e                	lw	a4,232(sp)
   10d52:	76a2                	ld	a3,40(sp)
   10d54:	52d75163          	bge	a4,a3,11276 <_vfprintf_r+0xd74>
   10d58:	6686                	ld	a3,64(sp)
   10d5a:	11812703          	lw	a4,280(sp)
   10d5e:	6626                	ld	a2,72(sp)
   10d60:	97b6                	add	a5,a5,a3
   10d62:	2705                	addiw	a4,a4,1
   10d64:	00d33423          	sd	a3,8(t1)
   10d68:	00c33023          	sd	a2,0(t1)
   10d6c:	0007069b          	sext.w	a3,a4
   10d70:	10e12c23          	sw	a4,280(sp)
   10d74:	f23e                	sd	a5,288(sp)
   10d76:	471d                	li	a4,7
   10d78:	0341                	addi	t1,t1,16
   10d7a:	5ad74e63          	blt	a4,a3,11336 <_vfprintf_r+0xe34>
   10d7e:	7722                	ld	a4,40(sp)
   10d80:	fff70a1b          	addiw	s4,a4,-1
   10d84:	9f405be3          	blez	s4,1077a <_vfprintf_r+0x278>
   10d88:	68f1                	lui	a7,0x1c
   10d8a:	46c1                	li	a3,16
   10d8c:	11812703          	lw	a4,280(sp)
   10d90:	74088a93          	addi	s5,a7,1856 # 1c740 <zeroes.0>
   10d94:	4b41                	li	s6,16
   10d96:	4c9d                	li	s9,7
   10d98:	0146c763          	blt	a3,s4,10da6 <_vfprintf_r+0x8a4>
   10d9c:	0a90006f          	j	11644 <_vfprintf_r+0x1142>
   10da0:	3a41                	addiw	s4,s4,-16
   10da2:	0b4b51e3          	bge	s6,s4,11644 <_vfprintf_r+0x1142>
   10da6:	2705                	addiw	a4,a4,1
   10da8:	07c1                	addi	a5,a5,16
   10daa:	01533023          	sd	s5,0(t1)
   10dae:	01633423          	sd	s6,8(t1)
   10db2:	f23e                	sd	a5,288(sp)
   10db4:	10e12c23          	sw	a4,280(sp)
   10db8:	0341                	addi	t1,t1,16
   10dba:	feecd3e3          	bge	s9,a4,10da0 <_vfprintf_r+0x89e>
   10dbe:	0a10                	addi	a2,sp,272
   10dc0:	85de                	mv	a1,s7
   10dc2:	8562                	mv	a0,s8
   10dc4:	3f9070ef          	jal	ra,189bc <__sprint_r>
   10dc8:	12051663          	bnez	a0,10ef4 <_vfprintf_r+0x9f2>
   10dcc:	7792                	ld	a5,288(sp)
   10dce:	11812703          	lw	a4,280(sp)
   10dd2:	19010313          	addi	t1,sp,400
   10dd6:	b7e9                	j	10da0 <_vfprintf_r+0x89e>
   10dd8:	41390b3b          	subw	s6,s2,s3
   10ddc:	976056e3          	blez	s6,10748 <_vfprintf_r+0x246>
   10de0:	68f1                	lui	a7,0x1c
   10de2:	4641                	li	a2,16
   10de4:	11812703          	lw	a4,280(sp)
   10de8:	74088a93          	addi	s5,a7,1856 # 1c740 <zeroes.0>
   10dec:	4f41                	li	t5,16
   10dee:	4f9d                	li	t6,7
   10df0:	01664663          	blt	a2,s6,10dfc <_vfprintf_r+0x8fa>
   10df4:	a081                	j	10e34 <_vfprintf_r+0x932>
   10df6:	3b41                	addiw	s6,s6,-16
   10df8:	036f5e63          	bge	t5,s6,10e34 <_vfprintf_r+0x932>
   10dfc:	2705                	addiw	a4,a4,1
   10dfe:	07c1                	addi	a5,a5,16
   10e00:	01533023          	sd	s5,0(t1)
   10e04:	01e33423          	sd	t5,8(t1)
   10e08:	f23e                	sd	a5,288(sp)
   10e0a:	10e12c23          	sw	a4,280(sp)
   10e0e:	0341                	addi	t1,t1,16
   10e10:	feefd3e3          	bge	t6,a4,10df6 <_vfprintf_r+0x8f4>
   10e14:	0a10                	addi	a2,sp,272
   10e16:	85de                	mv	a1,s7
   10e18:	8562                	mv	a0,s8
   10e1a:	3a3070ef          	jal	ra,189bc <__sprint_r>
   10e1e:	e979                	bnez	a0,10ef4 <_vfprintf_r+0x9f2>
   10e20:	4f41                	li	t5,16
   10e22:	3b41                	addiw	s6,s6,-16
   10e24:	7792                	ld	a5,288(sp)
   10e26:	11812703          	lw	a4,280(sp)
   10e2a:	19010313          	addi	t1,sp,400
   10e2e:	4f9d                	li	t6,7
   10e30:	fd6f46e3          	blt	t5,s6,10dfc <_vfprintf_r+0x8fa>
   10e34:	0017069b          	addiw	a3,a4,1
   10e38:	97da                	add	a5,a5,s6
   10e3a:	01533023          	sd	s5,0(t1)
   10e3e:	01633423          	sd	s6,8(t1)
   10e42:	f23e                	sd	a5,288(sp)
   10e44:	10d12c23          	sw	a3,280(sp)
   10e48:	471d                	li	a4,7
   10e4a:	0341                	addi	t1,t1,16
   10e4c:	8ed75ee3          	bge	a4,a3,10748 <_vfprintf_r+0x246>
   10e50:	0a10                	addi	a2,sp,272
   10e52:	85de                	mv	a1,s7
   10e54:	8562                	mv	a0,s8
   10e56:	367070ef          	jal	ra,189bc <__sprint_r>
   10e5a:	ed49                	bnez	a0,10ef4 <_vfprintf_r+0x9f2>
   10e5c:	7792                	ld	a5,288(sp)
   10e5e:	19010313          	addi	t1,sp,400
   10e62:	b0dd                	j	10748 <_vfprintf_r+0x246>
   10e64:	68f1                	lui	a7,0x1c
   10e66:	4641                	li	a2,16
   10e68:	11812703          	lw	a4,280(sp)
   10e6c:	74088a93          	addi	s5,a7,1856 # 1c740 <zeroes.0>
   10e70:	4ec1                	li	t4,16
   10e72:	4b1d                	li	s6,7
   10e74:	01964663          	blt	a2,s9,10e80 <_vfprintf_r+0x97e>
   10e78:	a83d                	j	10eb6 <_vfprintf_r+0x9b4>
   10e7a:	3cc1                	addiw	s9,s9,-16
   10e7c:	039edd63          	bge	t4,s9,10eb6 <_vfprintf_r+0x9b4>
   10e80:	2705                	addiw	a4,a4,1
   10e82:	07c1                	addi	a5,a5,16
   10e84:	01533023          	sd	s5,0(t1)
   10e88:	01d33423          	sd	t4,8(t1)
   10e8c:	f23e                	sd	a5,288(sp)
   10e8e:	10e12c23          	sw	a4,280(sp)
   10e92:	0341                	addi	t1,t1,16
   10e94:	feeb53e3          	bge	s6,a4,10e7a <_vfprintf_r+0x978>
   10e98:	0a10                	addi	a2,sp,272
   10e9a:	85de                	mv	a1,s7
   10e9c:	8562                	mv	a0,s8
   10e9e:	31f070ef          	jal	ra,189bc <__sprint_r>
   10ea2:	e929                	bnez	a0,10ef4 <_vfprintf_r+0x9f2>
   10ea4:	4ec1                	li	t4,16
   10ea6:	3cc1                	addiw	s9,s9,-16
   10ea8:	7792                	ld	a5,288(sp)
   10eaa:	11812703          	lw	a4,280(sp)
   10eae:	19010313          	addi	t1,sp,400
   10eb2:	fd9ec7e3          	blt	t4,s9,10e80 <_vfprintf_r+0x97e>
   10eb6:	0017069b          	addiw	a3,a4,1
   10eba:	97e6                	add	a5,a5,s9
   10ebc:	01533023          	sd	s5,0(t1)
   10ec0:	01933423          	sd	s9,8(t1)
   10ec4:	f23e                	sd	a5,288(sp)
   10ec6:	10d12c23          	sw	a3,280(sp)
   10eca:	471d                	li	a4,7
   10ecc:	0341                	addi	t1,t1,16
   10ece:	88d751e3          	bge	a4,a3,10750 <_vfprintf_r+0x24e>
   10ed2:	0a10                	addi	a2,sp,272
   10ed4:	85de                	mv	a1,s7
   10ed6:	8562                	mv	a0,s8
   10ed8:	2e5070ef          	jal	ra,189bc <__sprint_r>
   10edc:	ed01                	bnez	a0,10ef4 <_vfprintf_r+0x9f2>
   10ede:	7792                	ld	a5,288(sp)
   10ee0:	19010313          	addi	t1,sp,400
   10ee4:	b0b5                	j	10750 <_vfprintf_r+0x24e>
   10ee6:	0a10                	addi	a2,sp,272
   10ee8:	85de                	mv	a1,s7
   10eea:	8562                	mv	a0,s8
   10eec:	2d1070ef          	jal	ra,189bc <__sprint_r>
   10ef0:	8a0504e3          	beqz	a0,10798 <_vfprintf_r+0x296>
   10ef4:	65e2                	ld	a1,24(sp)
   10ef6:	8c0584e3          	beqz	a1,107be <_vfprintf_r+0x2bc>
   10efa:	8562                	mv	a0,s8
   10efc:	111010ef          	jal	ra,1280c <_free_r>
   10f00:	b87d                	j	107be <_vfprintf_r+0x2bc>
   10f02:	68f1                	lui	a7,0x1c
   10f04:	4641                	li	a2,16
   10f06:	11812703          	lw	a4,280(sp)
   10f0a:	73088893          	addi	a7,a7,1840 # 1c730 <blanks.1>
   10f0e:	06d65163          	bge	a2,a3,10f70 <_vfprintf_r+0xa6e>
   10f12:	f8a2                	sd	s0,112(sp)
   10f14:	fca6                	sd	s1,120(sp)
   10f16:	8462                	mv	s0,s8
   10f18:	84de                	mv	s1,s7
   10f1a:	4f41                	li	t5,16
   10f1c:	439d                	li	t2,7
   10f1e:	8bb6                	mv	s7,a3
   10f20:	8c46                	mv	s8,a7
   10f22:	a021                	j	10f2a <_vfprintf_r+0xa28>
   10f24:	3bc1                	addiw	s7,s7,-16
   10f26:	037f5f63          	bge	t5,s7,10f64 <_vfprintf_r+0xa62>
   10f2a:	2705                	addiw	a4,a4,1
   10f2c:	07c1                	addi	a5,a5,16
   10f2e:	01833023          	sd	s8,0(t1)
   10f32:	01e33423          	sd	t5,8(t1)
   10f36:	f23e                	sd	a5,288(sp)
   10f38:	10e12c23          	sw	a4,280(sp)
   10f3c:	0341                	addi	t1,t1,16
   10f3e:	fee3d3e3          	bge	t2,a4,10f24 <_vfprintf_r+0xa22>
   10f42:	0a10                	addi	a2,sp,272
   10f44:	85a6                	mv	a1,s1
   10f46:	8522                	mv	a0,s0
   10f48:	275070ef          	jal	ra,189bc <__sprint_r>
   10f4c:	6c051263          	bnez	a0,11610 <_vfprintf_r+0x110e>
   10f50:	4f41                	li	t5,16
   10f52:	3bc1                	addiw	s7,s7,-16
   10f54:	7792                	ld	a5,288(sp)
   10f56:	11812703          	lw	a4,280(sp)
   10f5a:	19010313          	addi	t1,sp,400
   10f5e:	439d                	li	t2,7
   10f60:	fd7f45e3          	blt	t5,s7,10f2a <_vfprintf_r+0xa28>
   10f64:	86de                	mv	a3,s7
   10f66:	88e2                	mv	a7,s8
   10f68:	8ba6                	mv	s7,s1
   10f6a:	8c22                	mv	s8,s0
   10f6c:	74e6                	ld	s1,120(sp)
   10f6e:	7446                	ld	s0,112(sp)
   10f70:	2705                	addiw	a4,a4,1
   10f72:	97b6                	add	a5,a5,a3
   10f74:	00d33423          	sd	a3,8(t1)
   10f78:	01133023          	sd	a7,0(t1)
   10f7c:	0007069b          	sext.w	a3,a4
   10f80:	10e12c23          	sw	a4,280(sp)
   10f84:	f23e                	sd	a5,288(sp)
   10f86:	471d                	li	a4,7
   10f88:	0341                	addi	t1,t1,16
   10f8a:	f4d75f63          	bge	a4,a3,106e8 <_vfprintf_r+0x1e6>
   10f8e:	0a10                	addi	a2,sp,272
   10f90:	85de                	mv	a1,s7
   10f92:	8562                	mv	a0,s8
   10f94:	229070ef          	jal	ra,189bc <__sprint_r>
   10f98:	fd31                	bnez	a0,10ef4 <_vfprintf_r+0x9f2>
   10f9a:	7792                	ld	a5,288(sp)
   10f9c:	19010313          	addi	t1,sp,400
   10fa0:	f48ff06f          	j	106e8 <_vfprintf_r+0x1e6>
   10fa4:	8b26                	mv	s6,s1
   10fa6:	e83a                	sd	a4,16(sp)
   10fa8:	47a5                	li	a5,9
   10faa:	5b37e763          	bltu	a5,s3,11558 <_vfprintf_r+0x1056>
   10fae:	0309899b          	addiw	s3,s3,48
   10fb2:	193105a3          	sb	s3,395(sp)
   10fb6:	84da                	mv	s1,s6
   10fb8:	4a05                	li	s4,1
   10fba:	18b10d13          	addi	s10,sp,395
   10fbe:	be71                	j	10b5a <_vfprintf_r+0x658>
   10fc0:	0a10                	addi	a2,sp,272
   10fc2:	85de                	mv	a1,s7
   10fc4:	8562                	mv	a0,s8
   10fc6:	1f7070ef          	jal	ra,189bc <__sprint_r>
   10fca:	f50d                	bnez	a0,10ef4 <_vfprintf_r+0x9f2>
   10fcc:	7792                	ld	a5,288(sp)
   10fce:	19010313          	addi	t1,sp,400
   10fd2:	f6eff06f          	j	10740 <_vfprintf_r+0x23e>
   10fd6:	68f1                	lui	a7,0x1c
   10fd8:	73088893          	addi	a7,a7,1840 # 1c730 <blanks.1>
   10fdc:	46c1                	li	a3,16
   10fde:	11812703          	lw	a4,280(sp)
   10fe2:	4a41                	li	s4,16
   10fe4:	4b1d                	li	s6,7
   10fe6:	8ac6                	mv	s5,a7
   10fe8:	0096c663          	blt	a3,s1,10ff4 <_vfprintf_r+0xaf2>
   10fec:	a081                	j	1102c <_vfprintf_r+0xb2a>
   10fee:	34c1                	addiw	s1,s1,-16
   10ff0:	029a5d63          	bge	s4,s1,1102a <_vfprintf_r+0xb28>
   10ff4:	2705                	addiw	a4,a4,1
   10ff6:	07c1                	addi	a5,a5,16
   10ff8:	01533023          	sd	s5,0(t1)
   10ffc:	01433423          	sd	s4,8(t1)
   11000:	f23e                	sd	a5,288(sp)
   11002:	10e12c23          	sw	a4,280(sp)
   11006:	0341                	addi	t1,t1,16
   11008:	feeb53e3          	bge	s6,a4,10fee <_vfprintf_r+0xaec>
   1100c:	0a10                	addi	a2,sp,272
   1100e:	85de                	mv	a1,s7
   11010:	8562                	mv	a0,s8
   11012:	1ab070ef          	jal	ra,189bc <__sprint_r>
   11016:	ec051fe3          	bnez	a0,10ef4 <_vfprintf_r+0x9f2>
   1101a:	34c1                	addiw	s1,s1,-16
   1101c:	7792                	ld	a5,288(sp)
   1101e:	11812703          	lw	a4,280(sp)
   11022:	19010313          	addi	t1,sp,400
   11026:	fc9a47e3          	blt	s4,s1,10ff4 <_vfprintf_r+0xaf2>
   1102a:	88d6                	mv	a7,s5
   1102c:	0017069b          	addiw	a3,a4,1
   11030:	97a6                	add	a5,a5,s1
   11032:	01133023          	sd	a7,0(t1)
   11036:	00933423          	sd	s1,8(t1)
   1103a:	f23e                	sd	a5,288(sp)
   1103c:	10d12c23          	sw	a3,280(sp)
   11040:	471d                	li	a4,7
   11042:	f4d75263          	bge	a4,a3,10786 <_vfprintf_r+0x284>
   11046:	0a10                	addi	a2,sp,272
   11048:	85de                	mv	a1,s7
   1104a:	8562                	mv	a0,s8
   1104c:	171070ef          	jal	ra,189bc <__sprint_r>
   11050:	ea0512e3          	bnez	a0,10ef4 <_vfprintf_r+0x9f2>
   11054:	7792                	ld	a5,288(sp)
   11056:	f30ff06f          	j	10786 <_vfprintf_r+0x284>
   1105a:	562e                	lw	a2,232(sp)
   1105c:	54c05963          	blez	a2,115ae <_vfprintf_r+0x10ac>
   11060:	7702                	ld	a4,32(sp)
   11062:	76a2                	ld	a3,40(sp)
   11064:	00070a1b          	sext.w	s4,a4
   11068:	26e6cb63          	blt	a3,a4,112de <_vfprintf_r+0xddc>
   1106c:	03405263          	blez	s4,11090 <_vfprintf_r+0xb8e>
   11070:	11812703          	lw	a4,280(sp)
   11074:	97d2                	add	a5,a5,s4
   11076:	01a33023          	sd	s10,0(t1)
   1107a:	0017069b          	addiw	a3,a4,1
   1107e:	01433423          	sd	s4,8(t1)
   11082:	f23e                	sd	a5,288(sp)
   11084:	10d12c23          	sw	a3,280(sp)
   11088:	471d                	li	a4,7
   1108a:	0341                	addi	t1,t1,16
   1108c:	12d743e3          	blt	a4,a3,119b2 <_vfprintf_r+0x14b0>
   11090:	fffa4713          	not	a4,s4
   11094:	977d                	srai	a4,a4,0x3f
   11096:	00ea7a33          	and	s4,s4,a4
   1109a:	7702                	ld	a4,32(sp)
   1109c:	41470a3b          	subw	s4,a4,s4
   110a0:	2f404a63          	bgtz	s4,11394 <_vfprintf_r+0xe92>
   110a4:	7682                	ld	a3,32(sp)
   110a6:	4004f713          	andi	a4,s1,1024
   110aa:	00dd0cb3          	add	s9,s10,a3
   110ae:	76071363          	bnez	a4,11814 <_vfprintf_r+0x1312>
   110b2:	572e                	lw	a4,232(sp)
   110b4:	76a2                	ld	a3,40(sp)
   110b6:	00d74663          	blt	a4,a3,110c2 <_vfprintf_r+0xbc0>
   110ba:	0014f693          	andi	a3,s1,1
   110be:	100688e3          	beqz	a3,119ce <_vfprintf_r+0x14cc>
   110c2:	6606                	ld	a2,64(sp)
   110c4:	11812683          	lw	a3,280(sp)
   110c8:	65a6                	ld	a1,72(sp)
   110ca:	97b2                	add	a5,a5,a2
   110cc:	2685                	addiw	a3,a3,1
   110ce:	00c33423          	sd	a2,8(t1)
   110d2:	00b33023          	sd	a1,0(t1)
   110d6:	0006861b          	sext.w	a2,a3
   110da:	10d12c23          	sw	a3,280(sp)
   110de:	f23e                	sd	a5,288(sp)
   110e0:	469d                	li	a3,7
   110e2:	0341                	addi	t1,t1,16
   110e4:	42c6c9e3          	blt	a3,a2,11d16 <_vfprintf_r+0x1814>
   110e8:	76a2                	ld	a3,40(sp)
   110ea:	00dd0833          	add	a6,s10,a3
   110ee:	41980a33          	sub	s4,a6,s9
   110f2:	9e99                	subw	a3,a3,a4
   110f4:	000a061b          	sext.w	a2,s4
   110f8:	00c6d363          	bge	a3,a2,110fe <_vfprintf_r+0xbfc>
   110fc:	8a36                	mv	s4,a3
   110fe:	2a01                	sext.w	s4,s4
   11100:	03405263          	blez	s4,11124 <_vfprintf_r+0xc22>
   11104:	11812703          	lw	a4,280(sp)
   11108:	97d2                	add	a5,a5,s4
   1110a:	01933023          	sd	s9,0(t1)
   1110e:	0017061b          	addiw	a2,a4,1
   11112:	01433423          	sd	s4,8(t1)
   11116:	f23e                	sd	a5,288(sp)
   11118:	10c12c23          	sw	a2,280(sp)
   1111c:	471d                	li	a4,7
   1111e:	0341                	addi	t1,t1,16
   11120:	42c74fe3          	blt	a4,a2,11d5e <_vfprintf_r+0x185c>
   11124:	fffa4713          	not	a4,s4
   11128:	977d                	srai	a4,a4,0x3f
   1112a:	00ea7a33          	and	s4,s4,a4
   1112e:	41468a3b          	subw	s4,a3,s4
   11132:	e5405463          	blez	s4,1077a <_vfprintf_r+0x278>
   11136:	68f1                	lui	a7,0x1c
   11138:	46c1                	li	a3,16
   1113a:	11812703          	lw	a4,280(sp)
   1113e:	74088a93          	addi	s5,a7,1856 # 1c740 <zeroes.0>
   11142:	4b41                	li	s6,16
   11144:	4c9d                	li	s9,7
   11146:	0146c663          	blt	a3,s4,11152 <_vfprintf_r+0xc50>
   1114a:	a9ed                	j	11644 <_vfprintf_r+0x1142>
   1114c:	3a41                	addiw	s4,s4,-16
   1114e:	4f4b5b63          	bge	s6,s4,11644 <_vfprintf_r+0x1142>
   11152:	2705                	addiw	a4,a4,1
   11154:	07c1                	addi	a5,a5,16
   11156:	01533023          	sd	s5,0(t1)
   1115a:	01633423          	sd	s6,8(t1)
   1115e:	f23e                	sd	a5,288(sp)
   11160:	10e12c23          	sw	a4,280(sp)
   11164:	0341                	addi	t1,t1,16
   11166:	feecd3e3          	bge	s9,a4,1114c <_vfprintf_r+0xc4a>
   1116a:	0a10                	addi	a2,sp,272
   1116c:	85de                	mv	a1,s7
   1116e:	8562                	mv	a0,s8
   11170:	04d070ef          	jal	ra,189bc <__sprint_r>
   11174:	d80510e3          	bnez	a0,10ef4 <_vfprintf_r+0x9f2>
   11178:	7792                	ld	a5,288(sp)
   1117a:	11812703          	lw	a4,280(sp)
   1117e:	19010313          	addi	t1,sp,400
   11182:	b7e9                	j	1114c <_vfprintf_r+0xc4a>
   11184:	0014f613          	andi	a2,s1,1
   11188:	f8061d63          	bnez	a2,10922 <_vfprintf_r+0x420>
   1118c:	00d33423          	sd	a3,8(t1)
   11190:	f266                	sd	s9,288(sp)
   11192:	11412c23          	sw	s4,280(sp)
   11196:	471d                	li	a4,7
   11198:	ff475863          	bge	a4,s4,10988 <_vfprintf_r+0x486>
   1119c:	0a10                	addi	a2,sp,272
   1119e:	85de                	mv	a1,s7
   111a0:	8562                	mv	a0,s8
   111a2:	01b070ef          	jal	ra,189bc <__sprint_r>
   111a6:	d40517e3          	bnez	a0,10ef4 <_vfprintf_r+0x9f2>
   111aa:	7c92                	ld	s9,288(sp)
   111ac:	11812a03          	lw	s4,280(sp)
   111b0:	19010b13          	addi	s6,sp,400
   111b4:	fd4ff06f          	j	10988 <_vfprintf_r+0x486>
   111b8:	fdb05863          	blez	s11,10988 <_vfprintf_r+0x486>
   111bc:	68f1                	lui	a7,0x1c
   111be:	46c1                	li	a3,16
   111c0:	74088a93          	addi	s5,a7,1856 # 1c740 <zeroes.0>
   111c4:	4841                	li	a6,16
   111c6:	4d1d                	li	s10,7
   111c8:	01b6c663          	blt	a3,s11,111d4 <_vfprintf_r+0xcd2>
   111cc:	a9ed                	j	116c6 <_vfprintf_r+0x11c4>
   111ce:	3dc1                	addiw	s11,s11,-16
   111d0:	4fb85b63          	bge	a6,s11,116c6 <_vfprintf_r+0x11c4>
   111d4:	2a05                	addiw	s4,s4,1
   111d6:	0cc1                	addi	s9,s9,16
   111d8:	015b3023          	sd	s5,0(s6)
   111dc:	010b3423          	sd	a6,8(s6)
   111e0:	f266                	sd	s9,288(sp)
   111e2:	11412c23          	sw	s4,280(sp)
   111e6:	0b41                	addi	s6,s6,16
   111e8:	ff4d53e3          	bge	s10,s4,111ce <_vfprintf_r+0xccc>
   111ec:	0a10                	addi	a2,sp,272
   111ee:	85de                	mv	a1,s7
   111f0:	8562                	mv	a0,s8
   111f2:	7ca070ef          	jal	ra,189bc <__sprint_r>
   111f6:	ce051fe3          	bnez	a0,10ef4 <_vfprintf_r+0x9f2>
   111fa:	7c92                	ld	s9,288(sp)
   111fc:	11812a03          	lw	s4,280(sp)
   11200:	19010b13          	addi	s6,sp,400
   11204:	4841                	li	a6,16
   11206:	b7e1                	j	111ce <_vfprintf_r+0xccc>
   11208:	0104f793          	andi	a5,s1,16
   1120c:	e3dd                	bnez	a5,112b2 <_vfprintf_r+0xdb0>
   1120e:	66c2                	ld	a3,16(sp)
   11210:	0404f793          	andi	a5,s1,64
   11214:	0006a983          	lw	s3,0(a3)
   11218:	50078f63          	beqz	a5,11736 <_vfprintf_r+0x1234>
   1121c:	0109999b          	slliw	s3,s3,0x10
   11220:	4109d99b          	sraiw	s3,s3,0x10
   11224:	87ce                	mv	a5,s3
   11226:	9607dee3          	bgez	a5,10ba2 <_vfprintf_r+0x6a0>
   1122a:	e83a                	sd	a4,16(sp)
   1122c:	413009b3          	neg	s3,s3
   11230:	8b26                	mv	s6,s1
   11232:	02d00713          	li	a4,45
   11236:	4785                	li	a5,1
   11238:	b8f5                	j	10b34 <_vfprintf_r+0x632>
   1123a:	010b7793          	andi	a5,s6,16
   1123e:	e7a5                	bnez	a5,112a6 <_vfprintf_r+0xda4>
   11240:	66c2                	ld	a3,16(sp)
   11242:	040b7793          	andi	a5,s6,64
   11246:	0006a983          	lw	s3,0(a3)
   1124a:	4c078c63          	beqz	a5,11722 <_vfprintf_r+0x1220>
   1124e:	19c2                	slli	s3,s3,0x30
   11250:	0309d993          	srli	s3,s3,0x30
   11254:	e83a                	sd	a4,16(sp)
   11256:	4785                	li	a5,1
   11258:	b8e9                	j	10b32 <_vfprintf_r+0x630>
   1125a:	0104f793          	andi	a5,s1,16
   1125e:	efa5                	bnez	a5,112d6 <_vfprintf_r+0xdd4>
   11260:	66c2                	ld	a3,16(sp)
   11262:	0404f793          	andi	a5,s1,64
   11266:	0006a983          	lw	s3,0(a3)
   1126a:	4e078163          	beqz	a5,1174c <_vfprintf_r+0x124a>
   1126e:	19c2                	slli	s3,s3,0x30
   11270:	0309d993          	srli	s3,s3,0x30
   11274:	b2ad                	j	10bde <_vfprintf_r+0x6dc>
   11276:	0014f713          	andi	a4,s1,1
   1127a:	d0070063          	beqz	a4,1077a <_vfprintf_r+0x278>
   1127e:	bce9                	j	10d58 <_vfprintf_r+0x856>
   11280:	8356                	mv	t1,s5
   11282:	b229                	j	10b8c <_vfprintf_r+0x68a>
   11284:	00044e03          	lbu	t3,0(s0)
   11288:	e83e                	sd	a5,16(sp)
   1128a:	bcaff06f          	j	10654 <_vfprintf_r+0x152>
   1128e:	03000793          	li	a5,48
   11292:	18f105a3          	sb	a5,395(sp)
   11296:	18b10d13          	addi	s10,sp,395
   1129a:	b0c1                	j	10b5a <_vfprintf_r+0x658>
   1129c:	67a2                	ld	a5,8(sp)
   1129e:	8d22                	mv	s10,s0
   112a0:	e31c                	sd	a5,0(a4)
   112a2:	d0cff06f          	j	107ae <_vfprintf_r+0x2ac>
   112a6:	67c2                	ld	a5,16(sp)
   112a8:	e83a                	sd	a4,16(sp)
   112aa:	0007b983          	ld	s3,0(a5)
   112ae:	4785                	li	a5,1
   112b0:	b049                	j	10b32 <_vfprintf_r+0x630>
   112b2:	67c2                	ld	a5,16(sp)
   112b4:	639c                	ld	a5,0(a5)
   112b6:	89be                	mv	s3,a5
   112b8:	b0dd                	j	10b9e <_vfprintf_r+0x69c>
   112ba:	67c2                	ld	a5,16(sp)
   112bc:	00f78a93          	addi	s5,a5,15
   112c0:	ff0afa93          	andi	s5,s5,-16
   112c4:	010a8713          	addi	a4,s5,16
   112c8:	000ab783          	ld	a5,0(s5)
   112cc:	008ab583          	ld	a1,8(s5)
   112d0:	e83a                	sd	a4,16(sp)
   112d2:	db2ff06f          	j	10884 <_vfprintf_r+0x382>
   112d6:	67c2                	ld	a5,16(sp)
   112d8:	0007b983          	ld	s3,0(a5)
   112dc:	b209                	j	10bde <_vfprintf_r+0x6dc>
   112de:	00068a1b          	sext.w	s4,a3
   112e2:	d94047e3          	bgtz	s4,11070 <_vfprintf_r+0xb6e>
   112e6:	b36d                	j	11090 <_vfprintf_r+0xb8e>
   112e8:	67f1                	lui	a5,0x1c
   112ea:	4e878793          	addi	a5,a5,1256 # 1c4e8 <__clzdi2+0xb8>
   112ee:	8356                	mv	t1,s5
   112f0:	e8be                	sd	a5,80(sp)
   112f2:	66c2                	ld	a3,16(sp)
   112f4:	0204f793          	andi	a5,s1,32
   112f8:	00868713          	addi	a4,a3,8
   112fc:	20078a63          	beqz	a5,11510 <_vfprintf_r+0x100e>
   11300:	0006b983          	ld	s3,0(a3)
   11304:	0014f793          	andi	a5,s1,1
   11308:	cf81                	beqz	a5,11320 <_vfprintf_r+0xe1e>
   1130a:	00098b63          	beqz	s3,11320 <_vfprintf_r+0xe1e>
   1130e:	0024e493          	ori	s1,s1,2
   11312:	03000793          	li	a5,48
   11316:	0ef10023          	sb	a5,224(sp)
   1131a:	0fb100a3          	sb	s11,225(sp)
   1131e:	2481                	sext.w	s1,s1
   11320:	bff4fb13          	andi	s6,s1,-1025
   11324:	2b01                	sext.w	s6,s6
   11326:	e83a                	sd	a4,16(sp)
   11328:	4789                	li	a5,2
   1132a:	809ff06f          	j	10b32 <_vfprintf_r+0x630>
   1132e:	8356                	mv	t1,s5
   11330:	8b26                	mv	s6,s1
   11332:	feaff06f          	j	10b1c <_vfprintf_r+0x61a>
   11336:	0a10                	addi	a2,sp,272
   11338:	85de                	mv	a1,s7
   1133a:	8562                	mv	a0,s8
   1133c:	680070ef          	jal	ra,189bc <__sprint_r>
   11340:	ba051ae3          	bnez	a0,10ef4 <_vfprintf_r+0x9f2>
   11344:	7792                	ld	a5,288(sp)
   11346:	19010313          	addi	t1,sp,400
   1134a:	bc15                	j	10d7e <_vfprintf_r+0x87c>
   1134c:	67f1                	lui	a5,0x1c
   1134e:	50078793          	addi	a5,a5,1280 # 1c500 <__clzdi2+0xd0>
   11352:	8356                	mv	t1,s5
   11354:	e8be                	sd	a5,80(sp)
   11356:	bf71                	j	112f2 <_vfprintf_r+0xdf0>
   11358:	8356                	mv	t1,s5
   1135a:	b88d                	j	10bcc <_vfprintf_r+0x6ca>
   1135c:	2004e493          	ori	s1,s1,512
   11360:	00144e03          	lbu	t3,1(s0)
   11364:	2481                	sext.w	s1,s1
   11366:	0405                	addi	s0,s0,1
   11368:	aecff06f          	j	10654 <_vfprintf_r+0x152>
   1136c:	0204e493          	ori	s1,s1,32
   11370:	00144e03          	lbu	t3,1(s0)
   11374:	2481                	sext.w	s1,s1
   11376:	0405                	addi	s0,s0,1
   11378:	adcff06f          	j	10654 <_vfprintf_r+0x152>
   1137c:	4799                	li	a5,6
   1137e:	000c8a1b          	sext.w	s4,s9
   11382:	6597e463          	bltu	a5,s9,119ca <_vfprintf_r+0x14c8>
   11386:	6871                	lui	a6,0x1c
   11388:	89d2                	mv	s3,s4
   1138a:	e856                	sd	s5,16(sp)
   1138c:	51880d13          	addi	s10,a6,1304 # 1c518 <__clzdi2+0xe8>
   11390:	b32ff06f          	j	106c2 <_vfprintf_r+0x1c0>
   11394:	68f1                	lui	a7,0x1c
   11396:	46c1                	li	a3,16
   11398:	11812703          	lw	a4,280(sp)
   1139c:	74088a93          	addi	s5,a7,1856 # 1c740 <zeroes.0>
   113a0:	4dc1                	li	s11,16
   113a2:	4c9d                	li	s9,7
   113a4:	0146c663          	blt	a3,s4,113b0 <_vfprintf_r+0xeae>
   113a8:	a92d                	j	117e2 <_vfprintf_r+0x12e0>
   113aa:	3a41                	addiw	s4,s4,-16
   113ac:	434ddb63          	bge	s11,s4,117e2 <_vfprintf_r+0x12e0>
   113b0:	2705                	addiw	a4,a4,1
   113b2:	07c1                	addi	a5,a5,16
   113b4:	01533023          	sd	s5,0(t1)
   113b8:	01b33423          	sd	s11,8(t1)
   113bc:	f23e                	sd	a5,288(sp)
   113be:	10e12c23          	sw	a4,280(sp)
   113c2:	0341                	addi	t1,t1,16
   113c4:	feecd3e3          	bge	s9,a4,113aa <_vfprintf_r+0xea8>
   113c8:	0a10                	addi	a2,sp,272
   113ca:	85de                	mv	a1,s7
   113cc:	8562                	mv	a0,s8
   113ce:	5ee070ef          	jal	ra,189bc <__sprint_r>
   113d2:	b20511e3          	bnez	a0,10ef4 <_vfprintf_r+0x9f2>
   113d6:	7792                	ld	a5,288(sp)
   113d8:	11812703          	lw	a4,280(sp)
   113dc:	19010313          	addi	t1,sp,400
   113e0:	b7e9                	j	113aa <_vfprintf_r+0xea8>
   113e2:	07800713          	li	a4,120
   113e6:	0024e793          	ori	a5,s1,2
   113ea:	03000693          	li	a3,48
   113ee:	2781                	sext.w	a5,a5
   113f0:	0ee100a3          	sb	a4,225(sp)
   113f4:	0ed10023          	sb	a3,224(sp)
   113f8:	06300713          	li	a4,99
   113fc:	fc3e                	sd	a5,56(sp)
   113fe:	ec02                	sd	zero,24(sp)
   11400:	12810d13          	addi	s10,sp,296
   11404:	75974363          	blt	a4,s9,11b4a <_vfprintf_r+0x1648>
   11408:	69b2                	ld	s3,264(sp)
   1140a:	fdfdf793          	andi	a5,s11,-33
   1140e:	1024e493          	ori	s1,s1,258
   11412:	f83e                	sd	a5,48(sp)
   11414:	f882                	sd	zero,112(sp)
   11416:	6a12                	ld	s4,256(sp)
   11418:	2481                	sext.w	s1,s1
   1141a:	7009c263          	bltz	s3,11b1e <_vfprintf_r+0x161c>
   1141e:	06100793          	li	a5,97
   11422:	2cfd86e3          	beq	s11,a5,11eee <_vfprintf_r+0x19ec>
   11426:	fbfd879b          	addiw	a5,s11,-65
   1142a:	0007869b          	sext.w	a3,a5
   1142e:	02500713          	li	a4,37
   11432:	00d76c63          	bltu	a4,a3,1144a <_vfprintf_r+0xf48>
   11436:	02079713          	slli	a4,a5,0x20
   1143a:	01e75793          	srli	a5,a4,0x1e
   1143e:	6771                	lui	a4,0x1c
   11440:	69470713          	addi	a4,a4,1684 # 1c694 <__clzdi2+0x264>
   11444:	97ba                	add	a5,a5,a4
   11446:	439c                	lw	a5,0(a5)
   11448:	8782                	jr	a5
   1144a:	8ae6                	mv	s5,s9
   1144c:	4689                	li	a3,2
   1144e:	11bc                	addi	a5,sp,232
   11450:	8756                	mv	a4,s5
   11452:	0f810893          	addi	a7,sp,248
   11456:	0ec10813          	addi	a6,sp,236
   1145a:	85d2                	mv	a1,s4
   1145c:	864e                	mv	a2,s3
   1145e:	8562                	mv	a0,s8
   11460:	f01a                	sd	t1,32(sp)
   11462:	431020ef          	jal	ra,14092 <_ldtoa_r>
   11466:	7742                	ld	a4,48(sp)
   11468:	04700793          	li	a5,71
   1146c:	7302                	ld	t1,32(sp)
   1146e:	8d2a                	mv	s10,a0
   11470:	06f70de3          	beq	a4,a5,11cea <_vfprintf_r+0x17e8>
   11474:	04600793          	li	a5,70
   11478:	01550b33          	add	s6,a0,s5
   1147c:	00f71a63          	bne	a4,a5,11490 <_vfprintf_r+0xf8e>
   11480:	00054703          	lbu	a4,0(a0)
   11484:	03000793          	li	a5,48
   11488:	6cf70d63          	beq	a4,a5,11b62 <_vfprintf_r+0x1660>
   1148c:	572e                	lw	a4,232(sp)
   1148e:	9b3a                	add	s6,s6,a4
   11490:	4681                	li	a3,0
   11492:	4601                	li	a2,0
   11494:	8552                	mv	a0,s4
   11496:	85ce                	mv	a1,s3
   11498:	f01a                	sd	t1,32(sp)
   1149a:	0820a0ef          	jal	ra,1b51c <__eqtf2>
   1149e:	7302                	ld	t1,32(sp)
   114a0:	86da                	mv	a3,s6
   114a2:	e929                	bnez	a0,114f4 <_vfprintf_r+0xff2>
   114a4:	41a687bb          	subw	a5,a3,s10
   114a8:	f43e                	sd	a5,40(sp)
   114aa:	572e                	lw	a4,232(sp)
   114ac:	04700793          	li	a5,71
   114b0:	f03a                	sd	a4,32(sp)
   114b2:	7742                	ld	a4,48(sp)
   114b4:	2af70b63          	beq	a4,a5,1176a <_vfprintf_r+0x1268>
   114b8:	7742                	ld	a4,48(sp)
   114ba:	04600793          	li	a5,70
   114be:	52f71a63          	bne	a4,a5,119f2 <_vfprintf_r+0x14f0>
   114c2:	77e2                	ld	a5,56(sp)
   114c4:	7702                	ld	a4,32(sp)
   114c6:	8b85                	andi	a5,a5,1
   114c8:	00fce7b3          	or	a5,s9,a5
   114cc:	2ee05ae3          	blez	a4,11fc0 <_vfprintf_r+0x1abe>
   114d0:	2c0791e3          	bnez	a5,11f92 <_vfprintf_r+0x1a90>
   114d4:	7a02                	ld	s4,32(sp)
   114d6:	06600d93          	li	s11,102
   114da:	77e2                	ld	a5,56(sp)
   114dc:	4007f793          	andi	a5,a5,1024
   114e0:	240797e3          	bnez	a5,11f2e <_vfprintf_r+0x1a2c>
   114e4:	fffa4993          	not	s3,s4
   114e8:	43f9d993          	srai	s3,s3,0x3f
   114ec:	013a79b3          	and	s3,s4,s3
   114f0:	2981                	sext.w	s3,s3
   114f2:	ac75                	j	117ae <_vfprintf_r+0x12ac>
   114f4:	76ee                	ld	a3,248(sp)
   114f6:	fb66f7e3          	bgeu	a3,s6,114a4 <_vfprintf_r+0xfa2>
   114fa:	03000713          	li	a4,48
   114fe:	00168793          	addi	a5,a3,1
   11502:	fdbe                	sd	a5,248(sp)
   11504:	00e68023          	sb	a4,0(a3)
   11508:	76ee                	ld	a3,248(sp)
   1150a:	ff66eae3          	bltu	a3,s6,114fe <_vfprintf_r+0xffc>
   1150e:	bf59                	j	114a4 <_vfprintf_r+0xfa2>
   11510:	0104f793          	andi	a5,s1,16
   11514:	10078163          	beqz	a5,11616 <_vfprintf_r+0x1114>
   11518:	67c2                	ld	a5,16(sp)
   1151a:	0007b983          	ld	s3,0(a5)
   1151e:	b3dd                	j	11304 <_vfprintf_r+0xe02>
   11520:	0a10                	addi	a2,sp,272
   11522:	85de                	mv	a1,s7
   11524:	8562                	mv	a0,s8
   11526:	496070ef          	jal	ra,189bc <__sprint_r>
   1152a:	9c0515e3          	bnez	a0,10ef4 <_vfprintf_r+0x9f2>
   1152e:	7c92                	ld	s9,288(sp)
   11530:	11812a03          	lw	s4,280(sp)
   11534:	19010b13          	addi	s6,sp,400
   11538:	bfcff06f          	j	10934 <_vfprintf_r+0x432>
   1153c:	0a10                	addi	a2,sp,272
   1153e:	85de                	mv	a1,s7
   11540:	8562                	mv	a0,s8
   11542:	47a070ef          	jal	ra,189bc <__sprint_r>
   11546:	9a0517e3          	bnez	a0,10ef4 <_vfprintf_r+0x9f2>
   1154a:	7c92                	ld	s9,288(sp)
   1154c:	11812a03          	lw	s4,280(sp)
   11550:	19010b13          	addi	s6,sp,400
   11554:	bfeff06f          	j	10952 <_vfprintf_r+0x450>
   11558:	18c10a13          	addi	s4,sp,396
   1155c:	7826                	ld	a6,104(sp)
   1155e:	400b7693          	andi	a3,s6,1024
   11562:	4581                	li	a1,0
   11564:	8652                	mv	a2,s4
   11566:	44a9                	li	s1,10
   11568:	4725                	li	a4,9
   1156a:	0ff00a93          	li	s5,255
   1156e:	a039                	j	1157c <_vfprintf_r+0x107a>
   11570:	0299d7b3          	divu	a5,s3,s1
   11574:	03377663          	bgeu	a4,s3,115a0 <_vfprintf_r+0x109e>
   11578:	89be                	mv	s3,a5
   1157a:	866a                	mv	a2,s10
   1157c:	fff60d13          	addi	s10,a2,-1
   11580:	2585                	addiw	a1,a1,1
   11582:	0299f7b3          	remu	a5,s3,s1
   11586:	0307879b          	addiw	a5,a5,48
   1158a:	fef60fa3          	sb	a5,-1(a2)
   1158e:	d2ed                	beqz	a3,11570 <_vfprintf_r+0x106e>
   11590:	00084783          	lbu	a5,0(a6)
   11594:	fcf59ee3          	bne	a1,a5,11570 <_vfprintf_r+0x106e>
   11598:	fd578ce3          	beq	a5,s5,11570 <_vfprintf_r+0x106e>
   1159c:	3d376363          	bltu	a4,s3,11962 <_vfprintf_r+0x1460>
   115a0:	f4c2                	sd	a6,104(sp)
   115a2:	f42e                	sd	a1,40(sp)
   115a4:	41aa0a3b          	subw	s4,s4,s10
   115a8:	84da                	mv	s1,s6
   115aa:	db0ff06f          	j	10b5a <_vfprintf_r+0x658>
   115ae:	11812703          	lw	a4,280(sp)
   115b2:	66f1                	lui	a3,0x1c
   115b4:	52068693          	addi	a3,a3,1312 # 1c520 <__clzdi2+0xf0>
   115b8:	2705                	addiw	a4,a4,1
   115ba:	00d33023          	sd	a3,0(t1)
   115be:	0785                	addi	a5,a5,1
   115c0:	4685                	li	a3,1
   115c2:	00d33423          	sd	a3,8(t1)
   115c6:	10e12c23          	sw	a4,280(sp)
   115ca:	0007069b          	sext.w	a3,a4
   115ce:	f23e                	sd	a5,288(sp)
   115d0:	471d                	li	a4,7
   115d2:	0341                	addi	t1,t1,16
   115d4:	3ad74f63          	blt	a4,a3,11992 <_vfprintf_r+0x1490>
   115d8:	0e061e63          	bnez	a2,116d4 <_vfprintf_r+0x11d2>
   115dc:	76a2                	ld	a3,40(sp)
   115de:	0014f713          	andi	a4,s1,1
   115e2:	8f55                	or	a4,a4,a3
   115e4:	98070b63          	beqz	a4,1077a <_vfprintf_r+0x278>
   115e8:	6686                	ld	a3,64(sp)
   115ea:	11812703          	lw	a4,280(sp)
   115ee:	6626                	ld	a2,72(sp)
   115f0:	97b6                	add	a5,a5,a3
   115f2:	2705                	addiw	a4,a4,1
   115f4:	00d33423          	sd	a3,8(t1)
   115f8:	10e12c23          	sw	a4,280(sp)
   115fc:	0007069b          	sext.w	a3,a4
   11600:	00c33023          	sd	a2,0(t1)
   11604:	f23e                	sd	a5,288(sp)
   11606:	471d                	li	a4,7
   11608:	52d74363          	blt	a4,a3,11b2e <_vfprintf_r+0x162c>
   1160c:	0341                	addi	t1,t1,16
   1160e:	a8c5                	j	116fe <_vfprintf_r+0x11fc>
   11610:	8c22                	mv	s8,s0
   11612:	8ba6                	mv	s7,s1
   11614:	b0c5                	j	10ef4 <_vfprintf_r+0x9f2>
   11616:	66c2                	ld	a3,16(sp)
   11618:	0404f793          	andi	a5,s1,64
   1161c:	0006a983          	lw	s3,0(a3)
   11620:	12078e63          	beqz	a5,1175c <_vfprintf_r+0x125a>
   11624:	19c2                	slli	s3,s3,0x30
   11626:	0309d993          	srli	s3,s3,0x30
   1162a:	b9e9                	j	11304 <_vfprintf_r+0xe02>
   1162c:	0a10                	addi	a2,sp,272
   1162e:	85de                	mv	a1,s7
   11630:	8562                	mv	a0,s8
   11632:	38a070ef          	jal	ra,189bc <__sprint_r>
   11636:	8a051fe3          	bnez	a0,10ef4 <_vfprintf_r+0x9f2>
   1163a:	7792                	ld	a5,288(sp)
   1163c:	19010313          	addi	t1,sp,400
   11640:	f10ff06f          	j	10d50 <_vfprintf_r+0x84e>
   11644:	0017069b          	addiw	a3,a4,1
   11648:	8736                	mv	a4,a3
   1164a:	97d2                	add	a5,a5,s4
   1164c:	01533023          	sd	s5,0(t1)
   11650:	918ff06f          	j	10768 <_vfprintf_r+0x266>
   11654:	6512                	ld	a0,256(sp)
   11656:	65b2                	ld	a1,264(sp)
   11658:	4601                	li	a2,0
   1165a:	4681                	li	a3,0
   1165c:	7cb090ef          	jal	ra,1b626 <__letf2>
   11660:	6362                	ld	t1,24(sp)
   11662:	6c054763          	bltz	a0,11d30 <_vfprintf_r+0x182e>
   11666:	0df14783          	lbu	a5,223(sp)
   1166a:	04700713          	li	a4,71
   1166e:	33b75e63          	bge	a4,s11,119aa <_vfprintf_r+0x14a8>
   11672:	6871                	lui	a6,0x1c
   11674:	4d080d13          	addi	s10,a6,1232 # 1c4d0 <__clzdi2+0xa0>
   11678:	f7f4f493          	andi	s1,s1,-129
   1167c:	ec02                	sd	zero,24(sp)
   1167e:	fc02                	sd	zero,56(sp)
   11680:	f802                	sd	zero,48(sp)
   11682:	f002                	sd	zero,32(sp)
   11684:	2481                	sext.w	s1,s1
   11686:	498d                	li	s3,3
   11688:	4a0d                	li	s4,3
   1168a:	4c81                	li	s9,0
   1168c:	ba079963          	bnez	a5,10a3e <_vfprintf_r+0x53c>
   11690:	83cff06f          	j	106cc <_vfprintf_r+0x1ca>
   11694:	856a                	mv	a0,s10
   11696:	f89a                	sd	t1,112(sp)
   11698:	ddbfe0ef          	jal	ra,10472 <strlen>
   1169c:	00050a1b          	sext.w	s4,a0
   116a0:	0df14783          	lbu	a5,223(sp)
   116a4:	fffa4993          	not	s3,s4
   116a8:	43f9d993          	srai	s3,s3,0x3f
   116ac:	e856                	sd	s5,16(sp)
   116ae:	ec02                	sd	zero,24(sp)
   116b0:	fc02                	sd	zero,56(sp)
   116b2:	f802                	sd	zero,48(sp)
   116b4:	f002                	sd	zero,32(sp)
   116b6:	7346                	ld	t1,112(sp)
   116b8:	0149f9b3          	and	s3,s3,s4
   116bc:	4c81                	li	s9,0
   116be:	b8079063          	bnez	a5,10a3e <_vfprintf_r+0x53c>
   116c2:	80aff06f          	j	106cc <_vfprintf_r+0x1ca>
   116c6:	2a05                	addiw	s4,s4,1
   116c8:	86d2                	mv	a3,s4
   116ca:	9cee                	add	s9,s9,s11
   116cc:	015b3023          	sd	s5,0(s6)
   116d0:	aa6ff06f          	j	10976 <_vfprintf_r+0x474>
   116d4:	6686                	ld	a3,64(sp)
   116d6:	11812703          	lw	a4,280(sp)
   116da:	65a6                	ld	a1,72(sp)
   116dc:	97b6                	add	a5,a5,a3
   116de:	2705                	addiw	a4,a4,1
   116e0:	00d33423          	sd	a3,8(t1)
   116e4:	00b33023          	sd	a1,0(t1)
   116e8:	0007069b          	sext.w	a3,a4
   116ec:	10e12c23          	sw	a4,280(sp)
   116f0:	f23e                	sd	a5,288(sp)
   116f2:	471d                	li	a4,7
   116f4:	0341                	addi	t1,t1,16
   116f6:	42d74c63          	blt	a4,a3,11b2e <_vfprintf_r+0x162c>
   116fa:	68064263          	bltz	a2,11d7e <_vfprintf_r+0x187c>
   116fe:	7722                	ld	a4,40(sp)
   11700:	0016861b          	addiw	a2,a3,1
   11704:	01a33023          	sd	s10,0(t1)
   11708:	97ba                	add	a5,a5,a4
   1170a:	00e33423          	sd	a4,8(t1)
   1170e:	f23e                	sd	a5,288(sp)
   11710:	10c12c23          	sw	a2,280(sp)
   11714:	471d                	li	a4,7
   11716:	00c74463          	blt	a4,a2,1171e <_vfprintf_r+0x121c>
   1171a:	85eff06f          	j	10778 <_vfprintf_r+0x276>
   1171e:	a90ff06f          	j	109ae <_vfprintf_r+0x4ac>
   11722:	200b7793          	andi	a5,s6,512
   11726:	3a078c63          	beqz	a5,11ade <_vfprintf_r+0x15dc>
   1172a:	0ff9f993          	zext.b	s3,s3
   1172e:	e83a                	sd	a4,16(sp)
   11730:	4785                	li	a5,1
   11732:	c00ff06f          	j	10b32 <_vfprintf_r+0x630>
   11736:	2004f793          	andi	a5,s1,512
   1173a:	38078f63          	beqz	a5,11ad8 <_vfprintf_r+0x15d6>
   1173e:	0189999b          	slliw	s3,s3,0x18
   11742:	4189d99b          	sraiw	s3,s3,0x18
   11746:	87ce                	mv	a5,s3
   11748:	c56ff06f          	j	10b9e <_vfprintf_r+0x69c>
   1174c:	2004f793          	andi	a5,s1,512
   11750:	38078e63          	beqz	a5,11aec <_vfprintf_r+0x15ea>
   11754:	0ff9f993          	zext.b	s3,s3
   11758:	c86ff06f          	j	10bde <_vfprintf_r+0x6dc>
   1175c:	2004f793          	andi	a5,s1,512
   11760:	36078763          	beqz	a5,11ace <_vfprintf_r+0x15cc>
   11764:	0ff9f993          	zext.b	s3,s3
   11768:	be71                	j	11304 <_vfprintf_r+0xe02>
   1176a:	7702                	ld	a4,32(sp)
   1176c:	57f5                	li	a5,-3
   1176e:	26f74e63          	blt	a4,a5,119ea <_vfprintf_r+0x14e8>
   11772:	26eccc63          	blt	s9,a4,119ea <_vfprintf_r+0x14e8>
   11776:	77a2                	ld	a5,40(sp)
   11778:	7702                	ld	a4,32(sp)
   1177a:	64f74d63          	blt	a4,a5,11dd4 <_vfprintf_r+0x18d2>
   1177e:	77e2                	ld	a5,56(sp)
   11780:	7702                	ld	a4,32(sp)
   11782:	8b85                	andi	a5,a5,1
   11784:	8a3a                	mv	s4,a4
   11786:	c781                	beqz	a5,1178e <_vfprintf_r+0x128c>
   11788:	6786                	ld	a5,64(sp)
   1178a:	00e78a3b          	addw	s4,a5,a4
   1178e:	77e2                	ld	a5,56(sp)
   11790:	4007f793          	andi	a5,a5,1024
   11794:	c781                	beqz	a5,1179c <_vfprintf_r+0x129a>
   11796:	7782                	ld	a5,32(sp)
   11798:	78f04963          	bgtz	a5,11f2a <_vfprintf_r+0x1a28>
   1179c:	fffa4993          	not	s3,s4
   117a0:	43f9d993          	srai	s3,s3,0x3f
   117a4:	013a79b3          	and	s3,s4,s3
   117a8:	2981                	sext.w	s3,s3
   117aa:	06700d93          	li	s11,103
   117ae:	fc02                	sd	zero,56(sp)
   117b0:	f802                	sd	zero,48(sp)
   117b2:	77c6                	ld	a5,112(sp)
   117b4:	52078063          	beqz	a5,11cd4 <_vfprintf_r+0x17d2>
   117b8:	02d00793          	li	a5,45
   117bc:	0cf10fa3          	sb	a5,223(sp)
   117c0:	4c81                	li	s9,0
   117c2:	2985                	addiw	s3,s3,1
   117c4:	f09fe06f          	j	106cc <_vfprintf_r+0x1ca>
   117c8:	67b2                	ld	a5,264(sp)
   117ca:	3207cc63          	bltz	a5,11b02 <_vfprintf_r+0x1600>
   117ce:	0df14783          	lbu	a5,223(sp)
   117d2:	04700713          	li	a4,71
   117d6:	59b75063          	bge	a4,s11,11d56 <_vfprintf_r+0x1854>
   117da:	6871                	lui	a6,0x1c
   117dc:	4e080d13          	addi	s10,a6,1248 # 1c4e0 <__clzdi2+0xb0>
   117e0:	bd61                	j	11678 <_vfprintf_r+0x1176>
   117e2:	0017069b          	addiw	a3,a4,1
   117e6:	97d2                	add	a5,a5,s4
   117e8:	01533023          	sd	s5,0(t1)
   117ec:	01433423          	sd	s4,8(t1)
   117f0:	f23e                	sd	a5,288(sp)
   117f2:	10d12c23          	sw	a3,280(sp)
   117f6:	471d                	li	a4,7
   117f8:	0341                	addi	t1,t1,16
   117fa:	8ad755e3          	bge	a4,a3,110a4 <_vfprintf_r+0xba2>
   117fe:	0a10                	addi	a2,sp,272
   11800:	85de                	mv	a1,s7
   11802:	8562                	mv	a0,s8
   11804:	1b8070ef          	jal	ra,189bc <__sprint_r>
   11808:	ee051663          	bnez	a0,10ef4 <_vfprintf_r+0x9f2>
   1180c:	7792                	ld	a5,288(sp)
   1180e:	19010313          	addi	t1,sp,400
   11812:	b849                	j	110a4 <_vfprintf_r+0xba2>
   11814:	7722                	ld	a4,40(sp)
   11816:	f8a6                	sd	s1,112(sp)
   11818:	74e2                	ld	s1,56(sp)
   1181a:	fc4e                	sd	s3,56(sp)
   1181c:	79c2                	ld	s3,48(sp)
   1181e:	976a                	add	a4,a4,s10
   11820:	6ef1                	lui	t4,0x1c
   11822:	f022                	sd	s0,32(sp)
   11824:	fcca                	sd	s2,120(sp)
   11826:	f86a                	sd	s10,48(sp)
   11828:	7426                	ld	s0,104(sp)
   1182a:	8d5e                	mv	s10,s7
   1182c:	690a                	ld	s2,128(sp)
   1182e:	4a1d                	li	s4,7
   11830:	4dc1                	li	s11,16
   11832:	740e8a93          	addi	s5,t4,1856 # 1c740 <zeroes.0>
   11836:	8bba                	mv	s7,a4
   11838:	08098363          	beqz	s3,118be <_vfprintf_r+0x13bc>
   1183c:	e0d9                	bnez	s1,118c2 <_vfprintf_r+0x13c0>
   1183e:	147d                	addi	s0,s0,-1
   11840:	39fd                	addiw	s3,s3,-1
   11842:	11812703          	lw	a4,280(sp)
   11846:	7686                	ld	a3,96(sp)
   11848:	97ca                	add	a5,a5,s2
   1184a:	01233423          	sd	s2,8(t1)
   1184e:	00d33023          	sd	a3,0(t1)
   11852:	0017069b          	addiw	a3,a4,1
   11856:	f23e                	sd	a5,288(sp)
   11858:	10d12c23          	sw	a3,280(sp)
   1185c:	0341                	addi	t1,t1,16
   1185e:	0cda4863          	blt	s4,a3,1192e <_vfprintf_r+0x142c>
   11862:	00044603          	lbu	a2,0(s0)
   11866:	419b86b3          	sub	a3,s7,s9
   1186a:	0006851b          	sext.w	a0,a3
   1186e:	0006071b          	sext.w	a4,a2
   11872:	00a65363          	bge	a2,a0,11878 <_vfprintf_r+0x1376>
   11876:	86ba                	mv	a3,a4
   11878:	00068b1b          	sext.w	s6,a3
   1187c:	03605563          	blez	s6,118a6 <_vfprintf_r+0x13a4>
   11880:	11812703          	lw	a4,280(sp)
   11884:	97da                	add	a5,a5,s6
   11886:	01933023          	sd	s9,0(t1)
   1188a:	0017061b          	addiw	a2,a4,1
   1188e:	01633423          	sd	s6,8(t1)
   11892:	f23e                	sd	a5,288(sp)
   11894:	10c12c23          	sw	a2,280(sp)
   11898:	0aca4663          	blt	s4,a2,11944 <_vfprintf_r+0x1442>
   1189c:	00044603          	lbu	a2,0(s0)
   118a0:	0341                	addi	t1,t1,16
   118a2:	0006071b          	sext.w	a4,a2
   118a6:	fffb4513          	not	a0,s6
   118aa:	957d                	srai	a0,a0,0x3f
   118ac:	00ab76b3          	and	a3,s6,a0
   118b0:	40d70b3b          	subw	s6,a4,a3
   118b4:	01604963          	bgtz	s6,118c6 <_vfprintf_r+0x13c4>
   118b8:	9cb2                	add	s9,s9,a2
   118ba:	f80991e3          	bnez	s3,1183c <_vfprintf_r+0x133a>
   118be:	3e048d63          	beqz	s1,11cb8 <_vfprintf_r+0x17b6>
   118c2:	34fd                	addiw	s1,s1,-1
   118c4:	bfbd                	j	11842 <_vfprintf_r+0x1340>
   118c6:	11812683          	lw	a3,280(sp)
   118ca:	016dc663          	blt	s11,s6,118d6 <_vfprintf_r+0x13d4>
   118ce:	a83d                	j	1190c <_vfprintf_r+0x140a>
   118d0:	3b41                	addiw	s6,s6,-16
   118d2:	036ddd63          	bge	s11,s6,1190c <_vfprintf_r+0x140a>
   118d6:	2685                	addiw	a3,a3,1
   118d8:	07c1                	addi	a5,a5,16
   118da:	01533023          	sd	s5,0(t1)
   118de:	01b33423          	sd	s11,8(t1)
   118e2:	f23e                	sd	a5,288(sp)
   118e4:	10d12c23          	sw	a3,280(sp)
   118e8:	0341                	addi	t1,t1,16
   118ea:	feda53e3          	bge	s4,a3,118d0 <_vfprintf_r+0x13ce>
   118ee:	0a10                	addi	a2,sp,272
   118f0:	85ea                	mv	a1,s10
   118f2:	8562                	mv	a0,s8
   118f4:	0c8070ef          	jal	ra,189bc <__sprint_r>
   118f8:	3e051663          	bnez	a0,11ce4 <_vfprintf_r+0x17e2>
   118fc:	3b41                	addiw	s6,s6,-16
   118fe:	7792                	ld	a5,288(sp)
   11900:	11812683          	lw	a3,280(sp)
   11904:	19010313          	addi	t1,sp,400
   11908:	fd6dc7e3          	blt	s11,s6,118d6 <_vfprintf_r+0x13d4>
   1190c:	0016871b          	addiw	a4,a3,1
   11910:	97da                	add	a5,a5,s6
   11912:	01533023          	sd	s5,0(t1)
   11916:	01633423          	sd	s6,8(t1)
   1191a:	f23e                	sd	a5,288(sp)
   1191c:	10e12c23          	sw	a4,280(sp)
   11920:	3cea4e63          	blt	s4,a4,11cfc <_vfprintf_r+0x17fa>
   11924:	00044603          	lbu	a2,0(s0)
   11928:	0341                	addi	t1,t1,16
   1192a:	9cb2                	add	s9,s9,a2
   1192c:	b779                	j	118ba <_vfprintf_r+0x13b8>
   1192e:	0a10                	addi	a2,sp,272
   11930:	85ea                	mv	a1,s10
   11932:	8562                	mv	a0,s8
   11934:	088070ef          	jal	ra,189bc <__sprint_r>
   11938:	3a051663          	bnez	a0,11ce4 <_vfprintf_r+0x17e2>
   1193c:	7792                	ld	a5,288(sp)
   1193e:	19010313          	addi	t1,sp,400
   11942:	b705                	j	11862 <_vfprintf_r+0x1360>
   11944:	0a10                	addi	a2,sp,272
   11946:	85ea                	mv	a1,s10
   11948:	8562                	mv	a0,s8
   1194a:	072070ef          	jal	ra,189bc <__sprint_r>
   1194e:	38051b63          	bnez	a0,11ce4 <_vfprintf_r+0x17e2>
   11952:	00044603          	lbu	a2,0(s0)
   11956:	7792                	ld	a5,288(sp)
   11958:	19010313          	addi	t1,sp,400
   1195c:	0006071b          	sext.w	a4,a2
   11960:	b799                	j	118a6 <_vfprintf_r+0x13a4>
   11962:	678a                	ld	a5,128(sp)
   11964:	7586                	ld	a1,96(sp)
   11966:	f436                	sd	a3,40(sp)
   11968:	40fd0d33          	sub	s10,s10,a5
   1196c:	863e                	mv	a2,a5
   1196e:	856a                	mv	a0,s10
   11970:	f01a                	sd	t1,32(sp)
   11972:	ec42                	sd	a6,24(sp)
   11974:	464050ef          	jal	ra,16dd8 <strncpy>
   11978:	6862                	ld	a6,24(sp)
   1197a:	0299d7b3          	divu	a5,s3,s1
   1197e:	7302                	ld	t1,32(sp)
   11980:	00184603          	lbu	a2,1(a6)
   11984:	76a2                	ld	a3,40(sp)
   11986:	4581                	li	a1,0
   11988:	00c03633          	snez	a2,a2
   1198c:	9832                	add	a6,a6,a2
   1198e:	4725                	li	a4,9
   11990:	b6e5                	j	11578 <_vfprintf_r+0x1076>
   11992:	0a10                	addi	a2,sp,272
   11994:	85de                	mv	a1,s7
   11996:	8562                	mv	a0,s8
   11998:	024070ef          	jal	ra,189bc <__sprint_r>
   1199c:	d4051c63          	bnez	a0,10ef4 <_vfprintf_r+0x9f2>
   119a0:	562e                	lw	a2,232(sp)
   119a2:	7792                	ld	a5,288(sp)
   119a4:	19010313          	addi	t1,sp,400
   119a8:	b905                	j	115d8 <_vfprintf_r+0x10d6>
   119aa:	6871                	lui	a6,0x1c
   119ac:	4c880d13          	addi	s10,a6,1224 # 1c4c8 <__clzdi2+0x98>
   119b0:	b1e1                	j	11678 <_vfprintf_r+0x1176>
   119b2:	0a10                	addi	a2,sp,272
   119b4:	85de                	mv	a1,s7
   119b6:	8562                	mv	a0,s8
   119b8:	004070ef          	jal	ra,189bc <__sprint_r>
   119bc:	d2051c63          	bnez	a0,10ef4 <_vfprintf_r+0x9f2>
   119c0:	7792                	ld	a5,288(sp)
   119c2:	19010313          	addi	t1,sp,400
   119c6:	ecaff06f          	j	11090 <_vfprintf_r+0xb8e>
   119ca:	4a19                	li	s4,6
   119cc:	ba6d                	j	11386 <_vfprintf_r+0xe84>
   119ce:	76a2                	ld	a3,40(sp)
   119d0:	00dd0a33          	add	s4,s10,a3
   119d4:	419a0a33          	sub	s4,s4,s9
   119d8:	9e99                	subw	a3,a3,a4
   119da:	000a061b          	sext.w	a2,s4
   119de:	00c6d363          	bge	a3,a2,119e4 <_vfprintf_r+0x14e2>
   119e2:	8a36                	mv	s4,a3
   119e4:	2a01                	sext.w	s4,s4
   119e6:	f3eff06f          	j	11124 <_vfprintf_r+0xc22>
   119ea:	3df9                	addiw	s11,s11,-2
   119ec:	fdfdf793          	andi	a5,s11,-33
   119f0:	f83e                	sd	a5,48(sp)
   119f2:	7782                	ld	a5,32(sp)
   119f4:	75c2                	ld	a1,48(sp)
   119f6:	04100713          	li	a4,65
   119fa:	fff7869b          	addiw	a3,a5,-1
   119fe:	d5b6                	sw	a3,232(sp)
   11a00:	0ffdf793          	zext.b	a5,s11
   11a04:	4601                	li	a2,0
   11a06:	00e59663          	bne	a1,a4,11a12 <_vfprintf_r+0x1510>
   11a0a:	27bd                	addiw	a5,a5,15
   11a0c:	0ff7f793          	zext.b	a5,a5
   11a10:	4605                	li	a2,1
   11a12:	0ef10823          	sb	a5,240(sp)
   11a16:	02b00793          	li	a5,43
   11a1a:	0006d763          	bgez	a3,11a28 <_vfprintf_r+0x1526>
   11a1e:	7782                	ld	a5,32(sp)
   11a20:	4685                	li	a3,1
   11a22:	9e9d                	subw	a3,a3,a5
   11a24:	02d00793          	li	a5,45
   11a28:	0ef108a3          	sb	a5,241(sp)
   11a2c:	47a5                	li	a5,9
   11a2e:	40d7d263          	bge	a5,a3,11e32 <_vfprintf_r+0x1930>
   11a32:	0ff10e93          	addi	t4,sp,255
   11a36:	8676                	mv	a2,t4
   11a38:	45a9                	li	a1,10
   11a3a:	06300793          	li	a5,99
   11a3e:	02b6e73b          	remw	a4,a3,a1
   11a42:	88b2                	mv	a7,a2
   11a44:	8536                	mv	a0,a3
   11a46:	167d                	addi	a2,a2,-1
   11a48:	0307071b          	addiw	a4,a4,48
   11a4c:	fee88fa3          	sb	a4,-1(a7)
   11a50:	02b6c6bb          	divw	a3,a3,a1
   11a54:	fea7c5e3          	blt	a5,a0,11a3e <_vfprintf_r+0x153c>
   11a58:	0306869b          	addiw	a3,a3,48
   11a5c:	0ff6f693          	zext.b	a3,a3
   11a60:	ffe88793          	addi	a5,a7,-2
   11a64:	fed60fa3          	sb	a3,-1(a2)
   11a68:	59d7f363          	bgeu	a5,t4,11fee <_vfprintf_r+0x1aec>
   11a6c:	0f210713          	addi	a4,sp,242
   11a70:	a019                	j	11a76 <_vfprintf_r+0x1574>
   11a72:	0007c683          	lbu	a3,0(a5)
   11a76:	00d70023          	sb	a3,0(a4)
   11a7a:	0785                	addi	a5,a5,1
   11a7c:	0705                	addi	a4,a4,1
   11a7e:	ffd79ae3          	bne	a5,t4,11a72 <_vfprintf_r+0x1570>
   11a82:	10110793          	addi	a5,sp,257
   11a86:	0f210713          	addi	a4,sp,242
   11a8a:	411787b3          	sub	a5,a5,a7
   11a8e:	97ba                	add	a5,a5,a4
   11a90:	1998                	addi	a4,sp,240
   11a92:	9f99                	subw	a5,a5,a4
   11a94:	ecbe                	sd	a5,88(sp)
   11a96:	67e6                	ld	a5,88(sp)
   11a98:	76a2                	ld	a3,40(sp)
   11a9a:	4705                	li	a4,1
   11a9c:	00f68a3b          	addw	s4,a3,a5
   11aa0:	87d2                	mv	a5,s4
   11aa2:	40d75663          	bge	a4,a3,11eae <_vfprintf_r+0x19ac>
   11aa6:	6706                	ld	a4,64(sp)
   11aa8:	00e78a3b          	addw	s4,a5,a4
   11aac:	77e2                	ld	a5,56(sp)
   11aae:	fffa4993          	not	s3,s4
   11ab2:	43f9d993          	srai	s3,s3,0x3f
   11ab6:	bff7f493          	andi	s1,a5,-1025
   11aba:	2481                	sext.w	s1,s1
   11abc:	013a79b3          	and	s3,s4,s3
   11ac0:	1004e493          	ori	s1,s1,256
   11ac4:	2981                	sext.w	s3,s3
   11ac6:	fc02                	sd	zero,56(sp)
   11ac8:	f802                	sd	zero,48(sp)
   11aca:	f002                	sd	zero,32(sp)
   11acc:	b1dd                	j	117b2 <_vfprintf_r+0x12b0>
   11ace:	1982                	slli	s3,s3,0x20
   11ad0:	0209d993          	srli	s3,s3,0x20
   11ad4:	831ff06f          	j	11304 <_vfprintf_r+0xe02>
   11ad8:	87ce                	mv	a5,s3
   11ada:	8c4ff06f          	j	10b9e <_vfprintf_r+0x69c>
   11ade:	1982                	slli	s3,s3,0x20
   11ae0:	0209d993          	srli	s3,s3,0x20
   11ae4:	e83a                	sd	a4,16(sp)
   11ae6:	4785                	li	a5,1
   11ae8:	84aff06f          	j	10b32 <_vfprintf_r+0x630>
   11aec:	1982                	slli	s3,s3,0x20
   11aee:	0209d993          	srli	s3,s3,0x20
   11af2:	8ecff06f          	j	10bde <_vfprintf_r+0x6dc>
   11af6:	67a2                	ld	a5,8(sp)
   11af8:	8d22                	mv	s10,s0
   11afa:	00f71023          	sh	a5,0(a4)
   11afe:	cb1fe06f          	j	107ae <_vfprintf_r+0x2ac>
   11b02:	02d00793          	li	a5,45
   11b06:	0cf10fa3          	sb	a5,223(sp)
   11b0a:	b1e1                	j	117d2 <_vfprintf_r+0x12d0>
   11b0c:	0a10                	addi	a2,sp,272
   11b0e:	85de                	mv	a1,s7
   11b10:	8562                	mv	a0,s8
   11b12:	6ab060ef          	jal	ra,189bc <__sprint_r>
   11b16:	ca9fe06f          	j	107be <_vfprintf_r+0x2bc>
   11b1a:	ec02                	sd	zero,24(sp)
   11b1c:	84be                	mv	s1,a5
   11b1e:	57fd                	li	a5,-1
   11b20:	17fe                	slli	a5,a5,0x3f
   11b22:	00f9c9b3          	xor	s3,s3,a5
   11b26:	02d00793          	li	a5,45
   11b2a:	f8be                	sd	a5,112(sp)
   11b2c:	b8cd                	j	1141e <_vfprintf_r+0xf1c>
   11b2e:	0a10                	addi	a2,sp,272
   11b30:	85de                	mv	a1,s7
   11b32:	8562                	mv	a0,s8
   11b34:	689060ef          	jal	ra,189bc <__sprint_r>
   11b38:	ba051e63          	bnez	a0,10ef4 <_vfprintf_r+0x9f2>
   11b3c:	562e                	lw	a2,232(sp)
   11b3e:	7792                	ld	a5,288(sp)
   11b40:	11812683          	lw	a3,280(sp)
   11b44:	19010313          	addi	t1,sp,400
   11b48:	be4d                	j	116fa <_vfprintf_r+0x11f8>
   11b4a:	001c859b          	addiw	a1,s9,1
   11b4e:	8562                	mv	a0,s8
   11b50:	ec1a                	sd	t1,24(sp)
   11b52:	5a8030ef          	jal	ra,150fa <_malloc_r>
   11b56:	6362                	ld	t1,24(sp)
   11b58:	8d2a                	mv	s10,a0
   11b5a:	48050d63          	beqz	a0,11ff4 <_vfprintf_r+0x1af2>
   11b5e:	ec2a                	sd	a0,24(sp)
   11b60:	b065                	j	11408 <_vfprintf_r+0xf06>
   11b62:	4601                	li	a2,0
   11b64:	4681                	li	a3,0
   11b66:	8552                	mv	a0,s4
   11b68:	85ce                	mv	a1,s3
   11b6a:	f01a                	sd	t1,32(sp)
   11b6c:	1b1090ef          	jal	ra,1b51c <__eqtf2>
   11b70:	7302                	ld	t1,32(sp)
   11b72:	90050de3          	beqz	a0,1148c <_vfprintf_r+0xf8a>
   11b76:	4785                	li	a5,1
   11b78:	4157873b          	subw	a4,a5,s5
   11b7c:	d5ba                	sw	a4,232(sp)
   11b7e:	9b3a                	add	s6,s6,a4
   11b80:	ba01                	j	11490 <_vfprintf_r+0xf8e>
   11b82:	001c8a9b          	addiw	s5,s9,1
   11b86:	4689                	li	a3,2
   11b88:	b0d9                	j	1144e <_vfprintf_r+0xf4c>
   11b8a:	8ae6                	mv	s5,s9
   11b8c:	468d                	li	a3,3
   11b8e:	b0c1                	j	1144e <_vfprintf_r+0xf4c>
   11b90:	85ce                	mv	a1,s3
   11b92:	8552                	mv	a0,s4
   11b94:	f41a                	sd	t1,40(sp)
   11b96:	7600a0ef          	jal	ra,1c2f6 <__trunctfdf2>
   11b9a:	11ac                	addi	a1,sp,232
   11b9c:	6cf040ef          	jal	ra,16a6a <frexp>
   11ba0:	6b80a0ef          	jal	ra,1c258 <__extenddftf2>
   11ba4:	66ea                	ld	a3,152(sp)
   11ba6:	4601                	li	a2,0
   11ba8:	31f090ef          	jal	ra,1b6c6 <__multf3>
   11bac:	4601                	li	a2,0
   11bae:	4681                	li	a3,0
   11bb0:	f02a                	sd	a0,32(sp)
   11bb2:	8b2e                	mv	s6,a1
   11bb4:	169090ef          	jal	ra,1b51c <__eqtf2>
   11bb8:	7702                	ld	a4,32(sp)
   11bba:	7322                	ld	t1,40(sp)
   11bbc:	e119                	bnez	a0,11bc2 <_vfprintf_r+0x16c0>
   11bbe:	4785                	li	a5,1
   11bc0:	d5be                	sw	a5,232(sp)
   11bc2:	6a71                	lui	s4,0x1c
   11bc4:	500a0793          	addi	a5,s4,1280 # 1c500 <__clzdi2+0xd0>
   11bc8:	f03e                	sd	a5,32(sp)
   11bca:	020c9793          	slli	a5,s9,0x20
   11bce:	9381                	srli	a5,a5,0x20
   11bd0:	0785                	addi	a5,a5,1
   11bd2:	019d06bb          	addw	a3,s10,s9
   11bd6:	97ea                	add	a5,a5,s10
   11bd8:	f466                	sd	s9,40(sp)
   11bda:	fca2                	sd	s0,120(sp)
   11bdc:	f126                	sd	s1,160(sp)
   11bde:	e1de                	sd	s7,192(sp)
   11be0:	7c82                	ld	s9,32(sp)
   11be2:	8bda                	mv	s7,s6
   11be4:	8aea                	mv	s5,s10
   11be6:	f54a                	sd	s2,168(sp)
   11be8:	f91a                	sd	t1,176(sp)
   11bea:	843e                	mv	s0,a5
   11bec:	fd62                	sd	s8,184(sp)
   11bee:	e5ea                	sd	s10,200(sp)
   11bf0:	8b3a                	mv	s6,a4
   11bf2:	84b6                	mv	s1,a3
   11bf4:	a039                	j	11c02 <_vfprintf_r+0x1700>
   11bf6:	4601                	li	a2,0
   11bf8:	4681                	li	a3,0
   11bfa:	123090ef          	jal	ra,1b51c <__eqtf2>
   11bfe:	2c050b63          	beqz	a0,11ed4 <_vfprintf_r+0x19d2>
   11c02:	66aa                	ld	a3,136(sp)
   11c04:	4601                	li	a2,0
   11c06:	855a                	mv	a0,s6
   11c08:	85de                	mv	a1,s7
   11c0a:	2bd090ef          	jal	ra,1b6c6 <__multf3>
   11c0e:	892e                	mv	s2,a1
   11c10:	8a2a                	mv	s4,a0
   11c12:	5a60a0ef          	jal	ra,1c1b8 <__fixtfsi>
   11c16:	0005099b          	sext.w	s3,a0
   11c1a:	854e                	mv	a0,s3
   11c1c:	5e60a0ef          	jal	ra,1c202 <__floatsitf>
   11c20:	862a                	mv	a2,a0
   11c22:	86ae                	mv	a3,a1
   11c24:	8552                	mv	a0,s4
   11c26:	85ca                	mv	a1,s2
   11c28:	77f090ef          	jal	ra,1bba6 <__subtf3>
   11c2c:	013c8733          	add	a4,s9,s3
   11c30:	00074703          	lbu	a4,0(a4)
   11c34:	8a56                	mv	s4,s5
   11c36:	0a85                	addi	s5,s5,1
   11c38:	feea8fa3          	sb	a4,-1(s5)
   11c3c:	8c2a                	mv	s8,a0
   11c3e:	8d2e                	mv	s10,a1
   11c40:	8b2a                	mv	s6,a0
   11c42:	8bae                	mv	s7,a1
   11c44:	4154893b          	subw	s2,s1,s5
   11c48:	fb5417e3          	bne	s0,s5,11bf6 <_vfprintf_r+0x16f4>
   11c4c:	7466                	ld	s0,120(sp)
   11c4e:	748a                	ld	s1,160(sp)
   11c50:	792a                	ld	s2,168(sp)
   11c52:	734a                	ld	t1,176(sp)
   11c54:	6b8e                	ld	s7,192(sp)
   11c56:	7c6a                	ld	s8,184(sp)
   11c58:	6d2e                	ld	s10,200(sp)
   11c5a:	57fd                	li	a5,-1
   11c5c:	7ca2                	ld	s9,40(sp)
   11c5e:	88aa                	mv	a7,a0
   11c60:	f452                	sd	s4,40(sp)
   11c62:	8b3e                	mv	s6,a5
   11c64:	8a2e                	mv	s4,a1
   11c66:	66ca                	ld	a3,144(sp)
   11c68:	4601                	li	a2,0
   11c6a:	8546                	mv	a0,a7
   11c6c:	85d2                	mv	a1,s4
   11c6e:	fc9a                	sd	t1,120(sp)
   11c70:	f146                	sd	a7,160(sp)
   11c72:	115090ef          	jal	ra,1b586 <__getf2>
   11c76:	7366                	ld	t1,120(sp)
   11c78:	1ea04463          	bgtz	a0,11e60 <_vfprintf_r+0x195e>
   11c7c:	788a                	ld	a7,160(sp)
   11c7e:	66ca                	ld	a3,144(sp)
   11c80:	4601                	li	a2,0
   11c82:	8546                	mv	a0,a7
   11c84:	85d2                	mv	a1,s4
   11c86:	097090ef          	jal	ra,1b51c <__eqtf2>
   11c8a:	7366                	ld	t1,120(sp)
   11c8c:	e509                	bnez	a0,11c96 <_vfprintf_r+0x1794>
   11c8e:	0019f993          	andi	s3,s3,1
   11c92:	1c099763          	bnez	s3,11e60 <_vfprintf_r+0x195e>
   11c96:	001b071b          	addiw	a4,s6,1
   11c9a:	9756                	add	a4,a4,s5
   11c9c:	03000693          	li	a3,48
   11ca0:	000b4763          	bltz	s6,11cae <_vfprintf_r+0x17ac>
   11ca4:	0a85                	addi	s5,s5,1
   11ca6:	feda8fa3          	sb	a3,-1(s5)
   11caa:	ff571de3          	bne	a4,s5,11ca4 <_vfprintf_r+0x17a2>
   11cae:	41aa87bb          	subw	a5,s5,s10
   11cb2:	f43e                	sd	a5,40(sp)
   11cb4:	ff6ff06f          	j	114aa <_vfprintf_r+0xfa8>
   11cb8:	7722                	ld	a4,40(sp)
   11cba:	8bea                	mv	s7,s10
   11cbc:	7d42                	ld	s10,48(sp)
   11cbe:	f4a2                	sd	s0,104(sp)
   11cc0:	74c6                	ld	s1,112(sp)
   11cc2:	976a                	add	a4,a4,s10
   11cc4:	7402                	ld	s0,32(sp)
   11cc6:	7966                	ld	s2,120(sp)
   11cc8:	79e2                	ld	s3,56(sp)
   11cca:	bf977463          	bgeu	a4,s9,110b2 <_vfprintf_r+0xbb0>
   11cce:	8cba                	mv	s9,a4
   11cd0:	be2ff06f          	j	110b2 <_vfprintf_r+0xbb0>
   11cd4:	0df14783          	lbu	a5,223(sp)
   11cd8:	4c81                	li	s9,0
   11cda:	c399                	beqz	a5,11ce0 <_vfprintf_r+0x17de>
   11cdc:	d63fe06f          	j	10a3e <_vfprintf_r+0x53c>
   11ce0:	9edfe06f          	j	106cc <_vfprintf_r+0x1ca>
   11ce4:	8bea                	mv	s7,s10
   11ce6:	a0eff06f          	j	10ef4 <_vfprintf_r+0x9f2>
   11cea:	77e2                	ld	a5,56(sp)
   11cec:	01550b33          	add	s6,a0,s5
   11cf0:	8b85                	andi	a5,a5,1
   11cf2:	f8079f63          	bnez	a5,11490 <_vfprintf_r+0xf8e>
   11cf6:	76ee                	ld	a3,248(sp)
   11cf8:	facff06f          	j	114a4 <_vfprintf_r+0xfa2>
   11cfc:	0a10                	addi	a2,sp,272
   11cfe:	85ea                	mv	a1,s10
   11d00:	8562                	mv	a0,s8
   11d02:	4bb060ef          	jal	ra,189bc <__sprint_r>
   11d06:	fd79                	bnez	a0,11ce4 <_vfprintf_r+0x17e2>
   11d08:	00044603          	lbu	a2,0(s0)
   11d0c:	7792                	ld	a5,288(sp)
   11d0e:	19010313          	addi	t1,sp,400
   11d12:	9cb2                	add	s9,s9,a2
   11d14:	b65d                	j	118ba <_vfprintf_r+0x13b8>
   11d16:	0a10                	addi	a2,sp,272
   11d18:	85de                	mv	a1,s7
   11d1a:	8562                	mv	a0,s8
   11d1c:	4a1060ef          	jal	ra,189bc <__sprint_r>
   11d20:	9c051a63          	bnez	a0,10ef4 <_vfprintf_r+0x9f2>
   11d24:	572e                	lw	a4,232(sp)
   11d26:	7792                	ld	a5,288(sp)
   11d28:	19010313          	addi	t1,sp,400
   11d2c:	bbcff06f          	j	110e8 <_vfprintf_r+0xbe6>
   11d30:	02d00793          	li	a5,45
   11d34:	0cf10fa3          	sb	a5,223(sp)
   11d38:	ba0d                	j	1166a <_vfprintf_r+0x1168>
   11d3a:	0df14783          	lbu	a5,223(sp)
   11d3e:	e856                	sd	s5,16(sp)
   11d40:	fc02                	sd	zero,56(sp)
   11d42:	f802                	sd	zero,48(sp)
   11d44:	f002                	sd	zero,32(sp)
   11d46:	89e6                	mv	s3,s9
   11d48:	8a66                	mv	s4,s9
   11d4a:	4c81                	li	s9,0
   11d4c:	c399                	beqz	a5,11d52 <_vfprintf_r+0x1850>
   11d4e:	cf1fe06f          	j	10a3e <_vfprintf_r+0x53c>
   11d52:	97bfe06f          	j	106cc <_vfprintf_r+0x1ca>
   11d56:	6871                	lui	a6,0x1c
   11d58:	4d880d13          	addi	s10,a6,1240 # 1c4d8 <__clzdi2+0xa8>
   11d5c:	ba31                	j	11678 <_vfprintf_r+0x1176>
   11d5e:	0a10                	addi	a2,sp,272
   11d60:	85de                	mv	a1,s7
   11d62:	8562                	mv	a0,s8
   11d64:	459060ef          	jal	ra,189bc <__sprint_r>
   11d68:	98051663          	bnez	a0,10ef4 <_vfprintf_r+0x9f2>
   11d6c:	56ae                	lw	a3,232(sp)
   11d6e:	7722                	ld	a4,40(sp)
   11d70:	7792                	ld	a5,288(sp)
   11d72:	19010313          	addi	t1,sp,400
   11d76:	40d706bb          	subw	a3,a4,a3
   11d7a:	baaff06f          	j	11124 <_vfprintf_r+0xc22>
   11d7e:	68f1                	lui	a7,0x1c
   11d80:	5741                	li	a4,-16
   11d82:	40c00b3b          	negw	s6,a2
   11d86:	74088a93          	addi	s5,a7,1856 # 1c740 <zeroes.0>
   11d8a:	4a41                	li	s4,16
   11d8c:	4c9d                	li	s9,7
   11d8e:	00e64663          	blt	a2,a4,11d9a <_vfprintf_r+0x1898>
   11d92:	a0b5                	j	11dfe <_vfprintf_r+0x18fc>
   11d94:	3b41                	addiw	s6,s6,-16
   11d96:	076a5463          	bge	s4,s6,11dfe <_vfprintf_r+0x18fc>
   11d9a:	2685                	addiw	a3,a3,1
   11d9c:	07c1                	addi	a5,a5,16
   11d9e:	01533023          	sd	s5,0(t1)
   11da2:	01433423          	sd	s4,8(t1)
   11da6:	f23e                	sd	a5,288(sp)
   11da8:	10d12c23          	sw	a3,280(sp)
   11dac:	0341                	addi	t1,t1,16
   11dae:	fedcd3e3          	bge	s9,a3,11d94 <_vfprintf_r+0x1892>
   11db2:	0a10                	addi	a2,sp,272
   11db4:	85de                	mv	a1,s7
   11db6:	8562                	mv	a0,s8
   11db8:	405060ef          	jal	ra,189bc <__sprint_r>
   11dbc:	92051c63          	bnez	a0,10ef4 <_vfprintf_r+0x9f2>
   11dc0:	7792                	ld	a5,288(sp)
   11dc2:	11812683          	lw	a3,280(sp)
   11dc6:	19010313          	addi	t1,sp,400
   11dca:	b7e9                	j	11d94 <_vfprintf_r+0x1892>
   11dcc:	57fd                	li	a5,-1
   11dce:	e43e                	sd	a5,8(sp)
   11dd0:	9fdfe06f          	j	107cc <_vfprintf_r+0x2ca>
   11dd4:	7722                	ld	a4,40(sp)
   11dd6:	6786                	ld	a5,64(sp)
   11dd8:	06700d93          	li	s11,103
   11ddc:	00e78a3b          	addw	s4,a5,a4
   11de0:	7702                	ld	a4,32(sp)
   11de2:	eee04c63          	bgtz	a4,114da <_vfprintf_r+0xfd8>
   11de6:	40ea07bb          	subw	a5,s4,a4
   11dea:	2785                	addiw	a5,a5,1
   11dec:	00078a1b          	sext.w	s4,a5
   11df0:	fffa4713          	not	a4,s4
   11df4:	977d                	srai	a4,a4,0x3f
   11df6:	8ff9                	and	a5,a5,a4
   11df8:	0007899b          	sext.w	s3,a5
   11dfc:	ba4d                	j	117ae <_vfprintf_r+0x12ac>
   11dfe:	2685                	addiw	a3,a3,1
   11e00:	97da                	add	a5,a5,s6
   11e02:	01533023          	sd	s5,0(t1)
   11e06:	01633423          	sd	s6,8(t1)
   11e0a:	f23e                	sd	a5,288(sp)
   11e0c:	10d12c23          	sw	a3,280(sp)
   11e10:	471d                	li	a4,7
   11e12:	fed75d63          	bge	a4,a3,1160c <_vfprintf_r+0x110a>
   11e16:	0a10                	addi	a2,sp,272
   11e18:	85de                	mv	a1,s7
   11e1a:	8562                	mv	a0,s8
   11e1c:	3a1060ef          	jal	ra,189bc <__sprint_r>
   11e20:	c119                	beqz	a0,11e26 <_vfprintf_r+0x1924>
   11e22:	8d2ff06f          	j	10ef4 <_vfprintf_r+0x9f2>
   11e26:	7792                	ld	a5,288(sp)
   11e28:	11812683          	lw	a3,280(sp)
   11e2c:	19010313          	addi	t1,sp,400
   11e30:	b0f9                	j	116fe <_vfprintf_r+0x11fc>
   11e32:	0f210713          	addi	a4,sp,242
   11e36:	e619                	bnez	a2,11e44 <_vfprintf_r+0x1942>
   11e38:	03000793          	li	a5,48
   11e3c:	0ef10923          	sb	a5,242(sp)
   11e40:	0f310713          	addi	a4,sp,243
   11e44:	0306879b          	addiw	a5,a3,48
   11e48:	0c14                	addi	a3,sp,528
   11e4a:	40d706b3          	sub	a3,a4,a3
   11e4e:	00f70023          	sb	a5,0(a4)
   11e52:	1216879b          	addiw	a5,a3,289
   11e56:	ecbe                	sd	a5,88(sp)
   11e58:	b93d                	j	11a96 <_vfprintf_r+0x1594>
   11e5a:	8b26                	mv	s6,s1
   11e5c:	952ff06f          	j	10fae <_vfprintf_r+0xaac>
   11e60:	77a2                	ld	a5,40(sp)
   11e62:	8756                	mv	a4,s5
   11e64:	fdbe                	sd	a5,248(sp)
   11e66:	7782                	ld	a5,32(sp)
   11e68:	fffac683          	lbu	a3,-1(s5)
   11e6c:	00f7c603          	lbu	a2,15(a5)
   11e70:	00d61e63          	bne	a2,a3,11e8c <_vfprintf_r+0x198a>
   11e74:	03000593          	li	a1,48
   11e78:	feb70fa3          	sb	a1,-1(a4)
   11e7c:	776e                	ld	a4,248(sp)
   11e7e:	fff70793          	addi	a5,a4,-1
   11e82:	fdbe                	sd	a5,248(sp)
   11e84:	fff74683          	lbu	a3,-1(a4)
   11e88:	fed608e3          	beq	a2,a3,11e78 <_vfprintf_r+0x1976>
   11e8c:	0016861b          	addiw	a2,a3,1
   11e90:	03900593          	li	a1,57
   11e94:	0ff67613          	zext.b	a2,a2
   11e98:	00b68563          	beq	a3,a1,11ea2 <_vfprintf_r+0x19a0>
   11e9c:	fec70fa3          	sb	a2,-1(a4)
   11ea0:	b539                	j	11cae <_vfprintf_r+0x17ac>
   11ea2:	7782                	ld	a5,32(sp)
   11ea4:	00a7c603          	lbu	a2,10(a5)
   11ea8:	fec70fa3          	sb	a2,-1(a4)
   11eac:	b509                	j	11cae <_vfprintf_r+0x17ac>
   11eae:	7762                	ld	a4,56(sp)
   11eb0:	8b05                	andi	a4,a4,1
   11eb2:	be070de3          	beqz	a4,11aac <_vfprintf_r+0x15aa>
   11eb6:	bec5                	j	11aa6 <_vfprintf_r+0x15a4>
   11eb8:	c31c                	sw	a5,0(a4)
   11eba:	8d22                	mv	s10,s0
   11ebc:	8f3fe06f          	j	107ae <_vfprintf_r+0x2ac>
   11ec0:	000c8463          	beqz	s9,11ec8 <_vfprintf_r+0x19c6>
   11ec4:	a0dfe06f          	j	108d0 <_vfprintf_r+0x3ce>
   11ec8:	4c85                	li	s9,1
   11eca:	a07fe06f          	j	108d0 <_vfprintf_r+0x3ce>
   11ece:	4c99                	li	s9,6
   11ed0:	a01fe06f          	j	108d0 <_vfprintf_r+0x3ce>
   11ed4:	7ca2                	ld	s9,40(sp)
   11ed6:	8b4a                	mv	s6,s2
   11ed8:	f452                	sd	s4,40(sp)
   11eda:	88e2                	mv	a7,s8
   11edc:	8a6a                	mv	s4,s10
   11ede:	7466                	ld	s0,120(sp)
   11ee0:	748a                	ld	s1,160(sp)
   11ee2:	734a                	ld	t1,176(sp)
   11ee4:	792a                	ld	s2,168(sp)
   11ee6:	6b8e                	ld	s7,192(sp)
   11ee8:	7c6a                	ld	s8,184(sp)
   11eea:	6d2e                	ld	s10,200(sp)
   11eec:	bbad                	j	11c66 <_vfprintf_r+0x1764>
   11eee:	85ce                	mv	a1,s3
   11ef0:	8552                	mv	a0,s4
   11ef2:	f41a                	sd	t1,40(sp)
   11ef4:	4020a0ef          	jal	ra,1c2f6 <__trunctfdf2>
   11ef8:	11ac                	addi	a1,sp,232
   11efa:	371040ef          	jal	ra,16a6a <frexp>
   11efe:	35a0a0ef          	jal	ra,1c258 <__extenddftf2>
   11f02:	66ea                	ld	a3,152(sp)
   11f04:	4601                	li	a2,0
   11f06:	7c0090ef          	jal	ra,1b6c6 <__multf3>
   11f0a:	4601                	li	a2,0
   11f0c:	4681                	li	a3,0
   11f0e:	f02a                	sd	a0,32(sp)
   11f10:	8b2e                	mv	s6,a1
   11f12:	60a090ef          	jal	ra,1b51c <__eqtf2>
   11f16:	7702                	ld	a4,32(sp)
   11f18:	7322                	ld	t1,40(sp)
   11f1a:	e119                	bnez	a0,11f20 <_vfprintf_r+0x1a1e>
   11f1c:	4785                	li	a5,1
   11f1e:	d5be                	sw	a5,232(sp)
   11f20:	6a71                	lui	s4,0x1c
   11f22:	4e8a0793          	addi	a5,s4,1256 # 1c4e8 <__clzdi2+0xb8>
   11f26:	f03e                	sd	a5,32(sp)
   11f28:	b14d                	j	11bca <_vfprintf_r+0x16c8>
   11f2a:	06700d93          	li	s11,103
   11f2e:	7626                	ld	a2,104(sp)
   11f30:	0ff00713          	li	a4,255
   11f34:	00064783          	lbu	a5,0(a2)
   11f38:	0ce78663          	beq	a5,a4,12004 <_vfprintf_r+0x1b02>
   11f3c:	7702                	ld	a4,32(sp)
   11f3e:	4801                	li	a6,0
   11f40:	4501                	li	a0,0
   11f42:	0ff00693          	li	a3,255
   11f46:	0007859b          	sext.w	a1,a5
   11f4a:	00e7da63          	bge	a5,a4,11f5e <_vfprintf_r+0x1a5c>
   11f4e:	00164783          	lbu	a5,1(a2)
   11f52:	9f0d                	subw	a4,a4,a1
   11f54:	cb9d                	beqz	a5,11f8a <_vfprintf_r+0x1a88>
   11f56:	2505                	addiw	a0,a0,1
   11f58:	0605                	addi	a2,a2,1
   11f5a:	fed796e3          	bne	a5,a3,11f46 <_vfprintf_r+0x1a44>
   11f5e:	f4b2                	sd	a2,104(sp)
   11f60:	f03a                	sd	a4,32(sp)
   11f62:	f82a                	sd	a0,48(sp)
   11f64:	fc42                	sd	a6,56(sp)
   11f66:	7742                	ld	a4,48(sp)
   11f68:	77e2                	ld	a5,56(sp)
   11f6a:	9fb9                	addw	a5,a5,a4
   11f6c:	670a                	ld	a4,128(sp)
   11f6e:	02e787bb          	mulw	a5,a5,a4
   11f72:	014787bb          	addw	a5,a5,s4
   11f76:	00078a1b          	sext.w	s4,a5
   11f7a:	fffa4713          	not	a4,s4
   11f7e:	977d                	srai	a4,a4,0x3f
   11f80:	8ff9                	and	a5,a5,a4
   11f82:	0007899b          	sext.w	s3,a5
   11f86:	82dff06f          	j	117b2 <_vfprintf_r+0x12b0>
   11f8a:	00064783          	lbu	a5,0(a2)
   11f8e:	2805                	addiw	a6,a6,1
   11f90:	b7e9                	j	11f5a <_vfprintf_r+0x1a58>
   11f92:	6786                	ld	a5,64(sp)
   11f94:	06600d93          	li	s11,102
   11f98:	00e78a3b          	addw	s4,a5,a4
   11f9c:	019a0a3b          	addw	s4,s4,s9
   11fa0:	d3aff06f          	j	114da <_vfprintf_r+0xfd8>
   11fa4:	66c2                	ld	a3,16(sp)
   11fa6:	4298                	lw	a4,0(a3)
   11fa8:	06a1                	addi	a3,a3,8
   11faa:	00070c9b          	sext.w	s9,a4
   11fae:	00075363          	bgez	a4,11fb4 <_vfprintf_r+0x1ab2>
   11fb2:	5cfd                	li	s9,-1
   11fb4:	00144e03          	lbu	t3,1(s0)
   11fb8:	e836                	sd	a3,16(sp)
   11fba:	843e                	mv	s0,a5
   11fbc:	e98fe06f          	j	10654 <_vfprintf_r+0x152>
   11fc0:	e799                	bnez	a5,11fce <_vfprintf_r+0x1acc>
   11fc2:	4985                	li	s3,1
   11fc4:	06600d93          	li	s11,102
   11fc8:	4a05                	li	s4,1
   11fca:	fe4ff06f          	j	117ae <_vfprintf_r+0x12ac>
   11fce:	6786                	ld	a5,64(sp)
   11fd0:	06600d93          	li	s11,102
   11fd4:	2785                	addiw	a5,a5,1
   11fd6:	019787bb          	addw	a5,a5,s9
   11fda:	00078a1b          	sext.w	s4,a5
   11fde:	fffa4713          	not	a4,s4
   11fe2:	977d                	srai	a4,a4,0x3f
   11fe4:	8ff9                	and	a5,a5,a4
   11fe6:	0007899b          	sext.w	s3,a5
   11fea:	fc4ff06f          	j	117ae <_vfprintf_r+0x12ac>
   11fee:	4789                	li	a5,2
   11ff0:	ecbe                	sd	a5,88(sp)
   11ff2:	b455                	j	11a96 <_vfprintf_r+0x1594>
   11ff4:	010bd783          	lhu	a5,16(s7)
   11ff8:	0407e793          	ori	a5,a5,64
   11ffc:	00fb9823          	sh	a5,16(s7)
   12000:	fbefe06f          	j	107be <_vfprintf_r+0x2bc>
   12004:	fc02                	sd	zero,56(sp)
   12006:	f802                	sd	zero,48(sp)
   12008:	bfb9                	j	11f66 <_vfprintf_r+0x1a64>

000000000001200a <vfprintf>:
   1200a:	87aa                	mv	a5,a0
   1200c:	7581b503          	ld	a0,1880(gp) # 1f568 <_impure_ptr>
   12010:	86b2                	mv	a3,a2
   12012:	862e                	mv	a2,a1
   12014:	85be                	mv	a1,a5
   12016:	cecfe06f          	j	10502 <_vfprintf_r>

000000000001201a <__sbprintf>:
   1201a:	0105d783          	lhu	a5,16(a1)
   1201e:	0ac5ae03          	lw	t3,172(a1)
   12022:	0125d303          	lhu	t1,18(a1)
   12026:	0305b883          	ld	a7,48(a1)
   1202a:	0405b803          	ld	a6,64(a1)
   1202e:	b3010113          	addi	sp,sp,-1232
   12032:	9bf5                	andi	a5,a5,-3
   12034:	40000713          	li	a4,1024
   12038:	4c813023          	sd	s0,1216(sp)
   1203c:	00f11823          	sh	a5,16(sp)
   12040:	842e                	mv	s0,a1
   12042:	191c                	addi	a5,sp,176
   12044:	858a                	mv	a1,sp
   12046:	4a913c23          	sd	s1,1208(sp)
   1204a:	4b213823          	sd	s2,1200(sp)
   1204e:	4c113423          	sd	ra,1224(sp)
   12052:	892a                	mv	s2,a0
   12054:	d772                	sw	t3,172(sp)
   12056:	00611923          	sh	t1,18(sp)
   1205a:	f846                	sd	a7,48(sp)
   1205c:	e0c2                	sd	a6,64(sp)
   1205e:	e03e                	sd	a5,0(sp)
   12060:	ec3e                	sd	a5,24(sp)
   12062:	c63a                	sw	a4,12(sp)
   12064:	d03a                	sw	a4,32(sp)
   12066:	d402                	sw	zero,40(sp)
   12068:	c9afe0ef          	jal	ra,10502 <_vfprintf_r>
   1206c:	84aa                	mv	s1,a0
   1206e:	02055963          	bgez	a0,120a0 <__sbprintf+0x86>
   12072:	01015783          	lhu	a5,16(sp)
   12076:	0407f793          	andi	a5,a5,64
   1207a:	c799                	beqz	a5,12088 <__sbprintf+0x6e>
   1207c:	01045783          	lhu	a5,16(s0)
   12080:	0407e793          	ori	a5,a5,64
   12084:	00f41823          	sh	a5,16(s0)
   12088:	4c813083          	ld	ra,1224(sp)
   1208c:	4c013403          	ld	s0,1216(sp)
   12090:	4b013903          	ld	s2,1200(sp)
   12094:	8526                	mv	a0,s1
   12096:	4b813483          	ld	s1,1208(sp)
   1209a:	4d010113          	addi	sp,sp,1232
   1209e:	8082                	ret
   120a0:	858a                	mv	a1,sp
   120a2:	854a                	mv	a0,s2
   120a4:	356000ef          	jal	ra,123fa <_fflush_r>
   120a8:	d569                	beqz	a0,12072 <__sbprintf+0x58>
   120aa:	54fd                	li	s1,-1
   120ac:	b7d9                	j	12072 <__sbprintf+0x58>

00000000000120ae <__swsetup_r>:
   120ae:	7581b783          	ld	a5,1880(gp) # 1f568 <_impure_ptr>
   120b2:	1101                	addi	sp,sp,-32
   120b4:	e822                	sd	s0,16(sp)
   120b6:	e426                	sd	s1,8(sp)
   120b8:	ec06                	sd	ra,24(sp)
   120ba:	84aa                	mv	s1,a0
   120bc:	842e                	mv	s0,a1
   120be:	c399                	beqz	a5,120c4 <__swsetup_r+0x16>
   120c0:	4bb8                	lw	a4,80(a5)
   120c2:	cf21                	beqz	a4,1211a <__swsetup_r+0x6c>
   120c4:	01041703          	lh	a4,16(s0)
   120c8:	03071793          	slli	a5,a4,0x30
   120cc:	00877693          	andi	a3,a4,8
   120d0:	93c1                	srli	a5,a5,0x30
   120d2:	ceb9                	beqz	a3,12130 <__swsetup_r+0x82>
   120d4:	6c14                	ld	a3,24(s0)
   120d6:	cabd                	beqz	a3,1214c <__swsetup_r+0x9e>
   120d8:	0017f613          	andi	a2,a5,1
   120dc:	ce11                	beqz	a2,120f8 <__swsetup_r+0x4a>
   120de:	5010                	lw	a2,32(s0)
   120e0:	00042623          	sw	zero,12(s0)
   120e4:	4501                	li	a0,0
   120e6:	40c0063b          	negw	a2,a2
   120ea:	d410                	sw	a2,40(s0)
   120ec:	ce91                	beqz	a3,12108 <__swsetup_r+0x5a>
   120ee:	60e2                	ld	ra,24(sp)
   120f0:	6442                	ld	s0,16(sp)
   120f2:	64a2                	ld	s1,8(sp)
   120f4:	6105                	addi	sp,sp,32
   120f6:	8082                	ret
   120f8:	0027f613          	andi	a2,a5,2
   120fc:	4581                	li	a1,0
   120fe:	e211                	bnez	a2,12102 <__swsetup_r+0x54>
   12100:	500c                	lw	a1,32(s0)
   12102:	c44c                	sw	a1,12(s0)
   12104:	4501                	li	a0,0
   12106:	f6e5                	bnez	a3,120ee <__swsetup_r+0x40>
   12108:	0807f793          	andi	a5,a5,128
   1210c:	d3ed                	beqz	a5,120ee <__swsetup_r+0x40>
   1210e:	04076713          	ori	a4,a4,64
   12112:	00e41823          	sh	a4,16(s0)
   12116:	557d                	li	a0,-1
   12118:	bfd9                	j	120ee <__swsetup_r+0x40>
   1211a:	853e                	mv	a0,a5
   1211c:	5c0000ef          	jal	ra,126dc <__sinit>
   12120:	01041703          	lh	a4,16(s0)
   12124:	03071793          	slli	a5,a4,0x30
   12128:	00877693          	andi	a3,a4,8
   1212c:	93c1                	srli	a5,a5,0x30
   1212e:	f2dd                	bnez	a3,120d4 <__swsetup_r+0x26>
   12130:	0107f693          	andi	a3,a5,16
   12134:	c2ad                	beqz	a3,12196 <__swsetup_r+0xe8>
   12136:	8b91                	andi	a5,a5,4
   12138:	eb9d                	bnez	a5,1216e <__swsetup_r+0xc0>
   1213a:	6c14                	ld	a3,24(s0)
   1213c:	00876713          	ori	a4,a4,8
   12140:	03071793          	slli	a5,a4,0x30
   12144:	00e41823          	sh	a4,16(s0)
   12148:	93c1                	srli	a5,a5,0x30
   1214a:	f6d9                	bnez	a3,120d8 <__swsetup_r+0x2a>
   1214c:	2807f613          	andi	a2,a5,640
   12150:	20000593          	li	a1,512
   12154:	f8b602e3          	beq	a2,a1,120d8 <__swsetup_r+0x2a>
   12158:	85a2                	mv	a1,s0
   1215a:	8526                	mv	a0,s1
   1215c:	601020ef          	jal	ra,14f5c <__smakebuf_r>
   12160:	01041703          	lh	a4,16(s0)
   12164:	6c14                	ld	a3,24(s0)
   12166:	03071793          	slli	a5,a4,0x30
   1216a:	93c1                	srli	a5,a5,0x30
   1216c:	b7b5                	j	120d8 <__swsetup_r+0x2a>
   1216e:	6c2c                	ld	a1,88(s0)
   12170:	cd81                	beqz	a1,12188 <__swsetup_r+0xda>
   12172:	07440793          	addi	a5,s0,116
   12176:	00f58763          	beq	a1,a5,12184 <__swsetup_r+0xd6>
   1217a:	8526                	mv	a0,s1
   1217c:	690000ef          	jal	ra,1280c <_free_r>
   12180:	01041703          	lh	a4,16(s0)
   12184:	04043c23          	sd	zero,88(s0)
   12188:	6c14                	ld	a3,24(s0)
   1218a:	fdb77713          	andi	a4,a4,-37
   1218e:	00042423          	sw	zero,8(s0)
   12192:	e014                	sd	a3,0(s0)
   12194:	b765                	j	1213c <__swsetup_r+0x8e>
   12196:	47a5                	li	a5,9
   12198:	c09c                	sw	a5,0(s1)
   1219a:	04076713          	ori	a4,a4,64
   1219e:	00e41823          	sh	a4,16(s0)
   121a2:	557d                	li	a0,-1
   121a4:	b7a9                	j	120ee <__swsetup_r+0x40>

00000000000121a6 <__call_exitprocs>:
   121a6:	715d                	addi	sp,sp,-80
   121a8:	f052                	sd	s4,32(sp)
   121aa:	7481ba03          	ld	s4,1864(gp) # 1f558 <_global_impure_ptr>
   121ae:	f84a                	sd	s2,48(sp)
   121b0:	e486                	sd	ra,72(sp)
   121b2:	1f8a3903          	ld	s2,504(s4)
   121b6:	e0a2                	sd	s0,64(sp)
   121b8:	fc26                	sd	s1,56(sp)
   121ba:	f44e                	sd	s3,40(sp)
   121bc:	ec56                	sd	s5,24(sp)
   121be:	e85a                	sd	s6,16(sp)
   121c0:	e45e                	sd	s7,8(sp)
   121c2:	e062                	sd	s8,0(sp)
   121c4:	02090863          	beqz	s2,121f4 <__call_exitprocs+0x4e>
   121c8:	8b2a                	mv	s6,a0
   121ca:	8bae                	mv	s7,a1
   121cc:	4a85                	li	s5,1
   121ce:	59fd                	li	s3,-1
   121d0:	00892483          	lw	s1,8(s2)
   121d4:	fff4841b          	addiw	s0,s1,-1
   121d8:	00044e63          	bltz	s0,121f4 <__call_exitprocs+0x4e>
   121dc:	048e                	slli	s1,s1,0x3
   121de:	94ca                	add	s1,s1,s2
   121e0:	020b8663          	beqz	s7,1220c <__call_exitprocs+0x66>
   121e4:	2084b783          	ld	a5,520(s1)
   121e8:	03778263          	beq	a5,s7,1220c <__call_exitprocs+0x66>
   121ec:	347d                	addiw	s0,s0,-1
   121ee:	14e1                	addi	s1,s1,-8
   121f0:	ff3418e3          	bne	s0,s3,121e0 <__call_exitprocs+0x3a>
   121f4:	60a6                	ld	ra,72(sp)
   121f6:	6406                	ld	s0,64(sp)
   121f8:	74e2                	ld	s1,56(sp)
   121fa:	7942                	ld	s2,48(sp)
   121fc:	79a2                	ld	s3,40(sp)
   121fe:	7a02                	ld	s4,32(sp)
   12200:	6ae2                	ld	s5,24(sp)
   12202:	6b42                	ld	s6,16(sp)
   12204:	6ba2                	ld	s7,8(sp)
   12206:	6c02                	ld	s8,0(sp)
   12208:	6161                	addi	sp,sp,80
   1220a:	8082                	ret
   1220c:	00892783          	lw	a5,8(s2)
   12210:	6498                	ld	a4,8(s1)
   12212:	37fd                	addiw	a5,a5,-1
   12214:	04878463          	beq	a5,s0,1225c <__call_exitprocs+0xb6>
   12218:	0004b423          	sd	zero,8(s1)
   1221c:	db61                	beqz	a4,121ec <__call_exitprocs+0x46>
   1221e:	31092783          	lw	a5,784(s2)
   12222:	008a96bb          	sllw	a3,s5,s0
   12226:	00892c03          	lw	s8,8(s2)
   1222a:	8ff5                	and	a5,a5,a3
   1222c:	2781                	sext.w	a5,a5
   1222e:	ef89                	bnez	a5,12248 <__call_exitprocs+0xa2>
   12230:	9702                	jalr	a4
   12232:	00892703          	lw	a4,8(s2)
   12236:	1f8a3783          	ld	a5,504(s4)
   1223a:	01871463          	bne	a4,s8,12242 <__call_exitprocs+0x9c>
   1223e:	fb2787e3          	beq	a5,s2,121ec <__call_exitprocs+0x46>
   12242:	dbcd                	beqz	a5,121f4 <__call_exitprocs+0x4e>
   12244:	893e                	mv	s2,a5
   12246:	b769                	j	121d0 <__call_exitprocs+0x2a>
   12248:	31492783          	lw	a5,788(s2)
   1224c:	1084b583          	ld	a1,264(s1)
   12250:	8ff5                	and	a5,a5,a3
   12252:	2781                	sext.w	a5,a5
   12254:	e799                	bnez	a5,12262 <__call_exitprocs+0xbc>
   12256:	855a                	mv	a0,s6
   12258:	9702                	jalr	a4
   1225a:	bfe1                	j	12232 <__call_exitprocs+0x8c>
   1225c:	00892423          	sw	s0,8(s2)
   12260:	bf75                	j	1221c <__call_exitprocs+0x76>
   12262:	852e                	mv	a0,a1
   12264:	9702                	jalr	a4
   12266:	b7f1                	j	12232 <__call_exitprocs+0x8c>

0000000000012268 <__sflush_r>:
   12268:	01059783          	lh	a5,16(a1)
   1226c:	7179                	addi	sp,sp,-48
   1226e:	f022                	sd	s0,32(sp)
   12270:	e44e                	sd	s3,8(sp)
   12272:	f406                	sd	ra,40(sp)
   12274:	ec26                	sd	s1,24(sp)
   12276:	e84a                	sd	s2,16(sp)
   12278:	0087f693          	andi	a3,a5,8
   1227c:	842e                	mv	s0,a1
   1227e:	89aa                	mv	s3,a0
   12280:	ead5                	bnez	a3,12334 <__sflush_r+0xcc>
   12282:	6705                	lui	a4,0x1
   12284:	80070713          	addi	a4,a4,-2048 # 800 <register_fini-0xf8b0>
   12288:	4594                	lw	a3,8(a1)
   1228a:	8fd9                	or	a5,a5,a4
   1228c:	00f59823          	sh	a5,16(a1)
   12290:	10d05063          	blez	a3,12390 <__sflush_r+0x128>
   12294:	6438                	ld	a4,72(s0)
   12296:	c759                	beqz	a4,12324 <__sflush_r+0xbc>
   12298:	17c2                	slli	a5,a5,0x30
   1229a:	93c1                	srli	a5,a5,0x30
   1229c:	6685                	lui	a3,0x1
   1229e:	0009a483          	lw	s1,0(s3)
   122a2:	8efd                	and	a3,a3,a5
   122a4:	0009a023          	sw	zero,0(s3)
   122a8:	780c                	ld	a1,48(s0)
   122aa:	e6fd                	bnez	a3,12398 <__sflush_r+0x130>
   122ac:	4601                	li	a2,0
   122ae:	4685                	li	a3,1
   122b0:	854e                	mv	a0,s3
   122b2:	9702                	jalr	a4
   122b4:	57fd                	li	a5,-1
   122b6:	862a                	mv	a2,a0
   122b8:	10f50763          	beq	a0,a5,123c6 <__sflush_r+0x15e>
   122bc:	01045783          	lhu	a5,16(s0)
   122c0:	6438                	ld	a4,72(s0)
   122c2:	780c                	ld	a1,48(s0)
   122c4:	8b91                	andi	a5,a5,4
   122c6:	c799                	beqz	a5,122d4 <__sflush_r+0x6c>
   122c8:	4414                	lw	a3,8(s0)
   122ca:	6c3c                	ld	a5,88(s0)
   122cc:	8e15                	sub	a2,a2,a3
   122ce:	c399                	beqz	a5,122d4 <__sflush_r+0x6c>
   122d0:	583c                	lw	a5,112(s0)
   122d2:	8e1d                	sub	a2,a2,a5
   122d4:	4681                	li	a3,0
   122d6:	854e                	mv	a0,s3
   122d8:	9702                	jalr	a4
   122da:	57fd                	li	a5,-1
   122dc:	0cf51063          	bne	a0,a5,1239c <__sflush_r+0x134>
   122e0:	0009a703          	lw	a4,0(s3)
   122e4:	01041783          	lh	a5,16(s0)
   122e8:	cf6d                	beqz	a4,123e2 <__sflush_r+0x17a>
   122ea:	46f5                	li	a3,29
   122ec:	00d70563          	beq	a4,a3,122f6 <__sflush_r+0x8e>
   122f0:	46d9                	li	a3,22
   122f2:	0ed71e63          	bne	a4,a3,123ee <__sflush_r+0x186>
   122f6:	6c14                	ld	a3,24(s0)
   122f8:	777d                	lui	a4,0xfffff
   122fa:	7ff70713          	addi	a4,a4,2047 # fffffffffffff7ff <__BSS_END__+0xfffffffffffe01ef>
   122fe:	8ff9                	and	a5,a5,a4
   12300:	00f41823          	sh	a5,16(s0)
   12304:	00042423          	sw	zero,8(s0)
   12308:	e014                	sd	a3,0(s0)
   1230a:	6c2c                	ld	a1,88(s0)
   1230c:	0099a023          	sw	s1,0(s3)
   12310:	c991                	beqz	a1,12324 <__sflush_r+0xbc>
   12312:	07440793          	addi	a5,s0,116
   12316:	00f58563          	beq	a1,a5,12320 <__sflush_r+0xb8>
   1231a:	854e                	mv	a0,s3
   1231c:	4f0000ef          	jal	ra,1280c <_free_r>
   12320:	04043c23          	sd	zero,88(s0)
   12324:	4501                	li	a0,0
   12326:	70a2                	ld	ra,40(sp)
   12328:	7402                	ld	s0,32(sp)
   1232a:	64e2                	ld	s1,24(sp)
   1232c:	6942                	ld	s2,16(sp)
   1232e:	69a2                	ld	s3,8(sp)
   12330:	6145                	addi	sp,sp,48
   12332:	8082                	ret
   12334:	0185b903          	ld	s2,24(a1)
   12338:	fe0906e3          	beqz	s2,12324 <__sflush_r+0xbc>
   1233c:	6184                	ld	s1,0(a1)
   1233e:	03079713          	slli	a4,a5,0x30
   12342:	9341                	srli	a4,a4,0x30
   12344:	8b0d                	andi	a4,a4,3
   12346:	0125b023          	sd	s2,0(a1)
   1234a:	412484bb          	subw	s1,s1,s2
   1234e:	4781                	li	a5,0
   12350:	e311                	bnez	a4,12354 <__sflush_r+0xec>
   12352:	519c                	lw	a5,32(a1)
   12354:	c45c                	sw	a5,12(s0)
   12356:	00904663          	bgtz	s1,12362 <__sflush_r+0xfa>
   1235a:	b7e9                	j	12324 <__sflush_r+0xbc>
   1235c:	992a                	add	s2,s2,a0
   1235e:	fc9053e3          	blez	s1,12324 <__sflush_r+0xbc>
   12362:	603c                	ld	a5,64(s0)
   12364:	780c                	ld	a1,48(s0)
   12366:	86a6                	mv	a3,s1
   12368:	864a                	mv	a2,s2
   1236a:	854e                	mv	a0,s3
   1236c:	9782                	jalr	a5
   1236e:	9c89                	subw	s1,s1,a0
   12370:	fea046e3          	bgtz	a0,1235c <__sflush_r+0xf4>
   12374:	01045783          	lhu	a5,16(s0)
   12378:	70a2                	ld	ra,40(sp)
   1237a:	64e2                	ld	s1,24(sp)
   1237c:	0407e793          	ori	a5,a5,64
   12380:	00f41823          	sh	a5,16(s0)
   12384:	7402                	ld	s0,32(sp)
   12386:	6942                	ld	s2,16(sp)
   12388:	69a2                	ld	s3,8(sp)
   1238a:	557d                	li	a0,-1
   1238c:	6145                	addi	sp,sp,48
   1238e:	8082                	ret
   12390:	59b8                	lw	a4,112(a1)
   12392:	f0e041e3          	bgtz	a4,12294 <__sflush_r+0x2c>
   12396:	b779                	j	12324 <__sflush_r+0xbc>
   12398:	6850                	ld	a2,144(s0)
   1239a:	b72d                	j	122c4 <__sflush_r+0x5c>
   1239c:	01045783          	lhu	a5,16(s0)
   123a0:	777d                	lui	a4,0xfffff
   123a2:	7ff70713          	addi	a4,a4,2047 # fffffffffffff7ff <__BSS_END__+0xfffffffffffe01ef>
   123a6:	8ff9                	and	a5,a5,a4
   123a8:	6c14                	ld	a3,24(s0)
   123aa:	0107979b          	slliw	a5,a5,0x10
   123ae:	4107d79b          	sraiw	a5,a5,0x10
   123b2:	6705                	lui	a4,0x1
   123b4:	00f41823          	sh	a5,16(s0)
   123b8:	00042423          	sw	zero,8(s0)
   123bc:	e014                	sd	a3,0(s0)
   123be:	8ff9                	and	a5,a5,a4
   123c0:	d7a9                	beqz	a5,1230a <__sflush_r+0xa2>
   123c2:	e848                	sd	a0,144(s0)
   123c4:	b799                	j	1230a <__sflush_r+0xa2>
   123c6:	0009a783          	lw	a5,0(s3)
   123ca:	ee0789e3          	beqz	a5,122bc <__sflush_r+0x54>
   123ce:	4775                	li	a4,29
   123d0:	00e78563          	beq	a5,a4,123da <__sflush_r+0x172>
   123d4:	4759                	li	a4,22
   123d6:	f8e79fe3          	bne	a5,a4,12374 <__sflush_r+0x10c>
   123da:	0099a023          	sw	s1,0(s3)
   123de:	4501                	li	a0,0
   123e0:	b799                	j	12326 <__sflush_r+0xbe>
   123e2:	777d                	lui	a4,0xfffff
   123e4:	7ff70713          	addi	a4,a4,2047 # fffffffffffff7ff <__BSS_END__+0xfffffffffffe01ef>
   123e8:	6c14                	ld	a3,24(s0)
   123ea:	8ff9                	and	a5,a5,a4
   123ec:	b7d9                	j	123b2 <__sflush_r+0x14a>
   123ee:	0407e793          	ori	a5,a5,64
   123f2:	00f41823          	sh	a5,16(s0)
   123f6:	557d                	li	a0,-1
   123f8:	b73d                	j	12326 <__sflush_r+0xbe>

00000000000123fa <_fflush_r>:
   123fa:	1101                	addi	sp,sp,-32
   123fc:	e822                	sd	s0,16(sp)
   123fe:	ec06                	sd	ra,24(sp)
   12400:	842a                	mv	s0,a0
   12402:	c119                	beqz	a0,12408 <_fflush_r+0xe>
   12404:	493c                	lw	a5,80(a0)
   12406:	cb89                	beqz	a5,12418 <_fflush_r+0x1e>
   12408:	01059783          	lh	a5,16(a1)
   1240c:	ef89                	bnez	a5,12426 <_fflush_r+0x2c>
   1240e:	60e2                	ld	ra,24(sp)
   12410:	6442                	ld	s0,16(sp)
   12412:	4501                	li	a0,0
   12414:	6105                	addi	sp,sp,32
   12416:	8082                	ret
   12418:	e42e                	sd	a1,8(sp)
   1241a:	2c2000ef          	jal	ra,126dc <__sinit>
   1241e:	65a2                	ld	a1,8(sp)
   12420:	01059783          	lh	a5,16(a1)
   12424:	d7ed                	beqz	a5,1240e <_fflush_r+0x14>
   12426:	8522                	mv	a0,s0
   12428:	6442                	ld	s0,16(sp)
   1242a:	60e2                	ld	ra,24(sp)
   1242c:	6105                	addi	sp,sp,32
   1242e:	bd2d                	j	12268 <__sflush_r>

0000000000012430 <fflush>:
   12430:	cd1d                	beqz	a0,1246e <fflush+0x3e>
   12432:	1101                	addi	sp,sp,-32
   12434:	e822                	sd	s0,16(sp)
   12436:	842a                	mv	s0,a0
   12438:	7581b503          	ld	a0,1880(gp) # 1f568 <_impure_ptr>
   1243c:	ec06                	sd	ra,24(sp)
   1243e:	c119                	beqz	a0,12444 <fflush+0x14>
   12440:	493c                	lw	a5,80(a0)
   12442:	cf91                	beqz	a5,1245e <fflush+0x2e>
   12444:	01041783          	lh	a5,16(s0)
   12448:	e791                	bnez	a5,12454 <fflush+0x24>
   1244a:	60e2                	ld	ra,24(sp)
   1244c:	6442                	ld	s0,16(sp)
   1244e:	4501                	li	a0,0
   12450:	6105                	addi	sp,sp,32
   12452:	8082                	ret
   12454:	85a2                	mv	a1,s0
   12456:	6442                	ld	s0,16(sp)
   12458:	60e2                	ld	ra,24(sp)
   1245a:	6105                	addi	sp,sp,32
   1245c:	b531                	j	12268 <__sflush_r>
   1245e:	e42a                	sd	a0,8(sp)
   12460:	27c000ef          	jal	ra,126dc <__sinit>
   12464:	01041783          	lh	a5,16(s0)
   12468:	6522                	ld	a0,8(sp)
   1246a:	d3e5                	beqz	a5,1244a <fflush+0x1a>
   1246c:	b7e5                	j	12454 <fflush+0x24>
   1246e:	7481b503          	ld	a0,1864(gp) # 1f558 <_global_impure_ptr>
   12472:	65c9                	lui	a1,0x12
   12474:	3fa58593          	addi	a1,a1,1018 # 123fa <_fflush_r>
   12478:	1970006f          	j	12e0e <_fwalk_reent>

000000000001247c <__fp_lock>:
   1247c:	4501                	li	a0,0
   1247e:	8082                	ret

0000000000012480 <_cleanup_r>:
   12480:	65e9                	lui	a1,0x1a
   12482:	88e58593          	addi	a1,a1,-1906 # 1988e <_fclose_r>
   12486:	1890006f          	j	12e0e <_fwalk_reent>

000000000001248a <__fp_unlock>:
   1248a:	4501                	li	a0,0
   1248c:	8082                	ret

000000000001248e <__sinit.part.0>:
   1248e:	7139                	addi	sp,sp,-64
   12490:	67c9                	lui	a5,0x12
   12492:	fc06                	sd	ra,56(sp)
   12494:	f822                	sd	s0,48(sp)
   12496:	f426                	sd	s1,40(sp)
   12498:	f04a                	sd	s2,32(sp)
   1249a:	ec4e                	sd	s3,24(sp)
   1249c:	e852                	sd	s4,16(sp)
   1249e:	e456                	sd	s5,8(sp)
   124a0:	e05a                	sd	s6,0(sp)
   124a2:	6500                	ld	s0,8(a0)
   124a4:	48078793          	addi	a5,a5,1152 # 12480 <_cleanup_r>
   124a8:	ed3c                	sd	a5,88(a0)
   124aa:	53850713          	addi	a4,a0,1336
   124ae:	478d                	li	a5,3
   124b0:	52e53823          	sd	a4,1328(a0)
   124b4:	52f52423          	sw	a5,1320(a0)
   124b8:	52053023          	sd	zero,1312(a0)
   124bc:	4791                	li	a5,4
   124be:	892a                	mv	s2,a0
   124c0:	c81c                	sw	a5,16(s0)
   124c2:	4621                	li	a2,8
   124c4:	4581                	li	a1,0
   124c6:	0a042623          	sw	zero,172(s0)
   124ca:	00043023          	sd	zero,0(s0)
   124ce:	00043423          	sd	zero,8(s0)
   124d2:	00043c23          	sd	zero,24(s0)
   124d6:	02042023          	sw	zero,32(s0)
   124da:	02042423          	sw	zero,40(s0)
   124de:	0a440513          	addi	a0,s0,164
   124e2:	e13fd0ef          	jal	ra,102f4 <memset>
   124e6:	6b5d                	lui	s6,0x17
   124e8:	01093483          	ld	s1,16(s2)
   124ec:	6add                	lui	s5,0x17
   124ee:	6a5d                	lui	s4,0x17
   124f0:	69dd                	lui	s3,0x17
   124f2:	b78b0b13          	addi	s6,s6,-1160 # 16b78 <__sread>
   124f6:	bb4a8a93          	addi	s5,s5,-1100 # 16bb4 <__swrite>
   124fa:	c08a0a13          	addi	s4,s4,-1016 # 16c08 <__sseek>
   124fe:	c4a98993          	addi	s3,s3,-950 # 16c4a <__sclose>
   12502:	67c1                	lui	a5,0x10
   12504:	03643c23          	sd	s6,56(s0)
   12508:	05543023          	sd	s5,64(s0)
   1250c:	05443423          	sd	s4,72(s0)
   12510:	05343823          	sd	s3,80(s0)
   12514:	f800                	sd	s0,48(s0)
   12516:	07a5                	addi	a5,a5,9
   12518:	c89c                	sw	a5,16(s1)
   1251a:	4621                	li	a2,8
   1251c:	4581                	li	a1,0
   1251e:	0a04a623          	sw	zero,172(s1)
   12522:	0004b023          	sd	zero,0(s1)
   12526:	0004b423          	sd	zero,8(s1)
   1252a:	0004bc23          	sd	zero,24(s1)
   1252e:	0204a023          	sw	zero,32(s1)
   12532:	0204a423          	sw	zero,40(s1)
   12536:	0a448513          	addi	a0,s1,164
   1253a:	dbbfd0ef          	jal	ra,102f4 <memset>
   1253e:	01893403          	ld	s0,24(s2)
   12542:	000207b7          	lui	a5,0x20
   12546:	0364bc23          	sd	s6,56(s1)
   1254a:	0554b023          	sd	s5,64(s1)
   1254e:	0544b423          	sd	s4,72(s1)
   12552:	0534b823          	sd	s3,80(s1)
   12556:	f884                	sd	s1,48(s1)
   12558:	07c9                	addi	a5,a5,18
   1255a:	c81c                	sw	a5,16(s0)
   1255c:	0a042623          	sw	zero,172(s0)
   12560:	00043023          	sd	zero,0(s0)
   12564:	00043423          	sd	zero,8(s0)
   12568:	00043c23          	sd	zero,24(s0)
   1256c:	02042023          	sw	zero,32(s0)
   12570:	02042423          	sw	zero,40(s0)
   12574:	0a440513          	addi	a0,s0,164
   12578:	4621                	li	a2,8
   1257a:	4581                	li	a1,0
   1257c:	d79fd0ef          	jal	ra,102f4 <memset>
   12580:	70e2                	ld	ra,56(sp)
   12582:	03643c23          	sd	s6,56(s0)
   12586:	05543023          	sd	s5,64(s0)
   1258a:	05443423          	sd	s4,72(s0)
   1258e:	05343823          	sd	s3,80(s0)
   12592:	f800                	sd	s0,48(s0)
   12594:	7442                	ld	s0,48(sp)
   12596:	4785                	li	a5,1
   12598:	04f92823          	sw	a5,80(s2)
   1259c:	74a2                	ld	s1,40(sp)
   1259e:	7902                	ld	s2,32(sp)
   125a0:	69e2                	ld	s3,24(sp)
   125a2:	6a42                	ld	s4,16(sp)
   125a4:	6aa2                	ld	s5,8(sp)
   125a6:	6b02                	ld	s6,0(sp)
   125a8:	6121                	addi	sp,sp,64
   125aa:	8082                	ret

00000000000125ac <__sfmoreglue>:
   125ac:	1101                	addi	sp,sp,-32
   125ae:	e426                	sd	s1,8(sp)
   125b0:	0b000793          	li	a5,176
   125b4:	fff5849b          	addiw	s1,a1,-1
   125b8:	02f484b3          	mul	s1,s1,a5
   125bc:	e04a                	sd	s2,0(sp)
   125be:	892e                	mv	s2,a1
   125c0:	e822                	sd	s0,16(sp)
   125c2:	ec06                	sd	ra,24(sp)
   125c4:	0c848593          	addi	a1,s1,200
   125c8:	333020ef          	jal	ra,150fa <_malloc_r>
   125cc:	842a                	mv	s0,a0
   125ce:	cd01                	beqz	a0,125e6 <__sfmoreglue+0x3a>
   125d0:	0561                	addi	a0,a0,24
   125d2:	00043023          	sd	zero,0(s0)
   125d6:	01242423          	sw	s2,8(s0)
   125da:	e808                	sd	a0,16(s0)
   125dc:	0b048613          	addi	a2,s1,176
   125e0:	4581                	li	a1,0
   125e2:	d13fd0ef          	jal	ra,102f4 <memset>
   125e6:	60e2                	ld	ra,24(sp)
   125e8:	8522                	mv	a0,s0
   125ea:	6442                	ld	s0,16(sp)
   125ec:	64a2                	ld	s1,8(sp)
   125ee:	6902                	ld	s2,0(sp)
   125f0:	6105                	addi	sp,sp,32
   125f2:	8082                	ret

00000000000125f4 <__sfp>:
   125f4:	7179                	addi	sp,sp,-48
   125f6:	ec26                	sd	s1,24(sp)
   125f8:	7481b483          	ld	s1,1864(gp) # 1f558 <_global_impure_ptr>
   125fc:	e84a                	sd	s2,16(sp)
   125fe:	f406                	sd	ra,40(sp)
   12600:	48bc                	lw	a5,80(s1)
   12602:	f022                	sd	s0,32(sp)
   12604:	e44e                	sd	s3,8(sp)
   12606:	e052                	sd	s4,0(sp)
   12608:	892a                	mv	s2,a0
   1260a:	c3d9                	beqz	a5,12690 <__sfp+0x9c>
   1260c:	52048493          	addi	s1,s1,1312
   12610:	0b000993          	li	s3,176
   12614:	4a11                	li	s4,4
   12616:	449c                	lw	a5,8(s1)
   12618:	6880                	ld	s0,16(s1)
   1261a:	06f05763          	blez	a5,12688 <__sfp+0x94>
   1261e:	37fd                	addiw	a5,a5,-1
   12620:	1782                	slli	a5,a5,0x20
   12622:	9381                	srli	a5,a5,0x20
   12624:	0785                	addi	a5,a5,1
   12626:	033787b3          	mul	a5,a5,s3
   1262a:	97a2                	add	a5,a5,s0
   1262c:	a029                	j	12636 <__sfp+0x42>
   1262e:	0b040413          	addi	s0,s0,176
   12632:	04f40b63          	beq	s0,a5,12688 <__sfp+0x94>
   12636:	01041703          	lh	a4,16(s0)
   1263a:	fb75                	bnez	a4,1262e <__sfp+0x3a>
   1263c:	77c1                	lui	a5,0xffff0
   1263e:	0785                	addi	a5,a5,1
   12640:	0a042623          	sw	zero,172(s0)
   12644:	00043023          	sd	zero,0(s0)
   12648:	00043423          	sd	zero,8(s0)
   1264c:	c81c                	sw	a5,16(s0)
   1264e:	00043c23          	sd	zero,24(s0)
   12652:	02042023          	sw	zero,32(s0)
   12656:	02042423          	sw	zero,40(s0)
   1265a:	4621                	li	a2,8
   1265c:	4581                	li	a1,0
   1265e:	0a440513          	addi	a0,s0,164
   12662:	c93fd0ef          	jal	ra,102f4 <memset>
   12666:	04043c23          	sd	zero,88(s0)
   1266a:	06042023          	sw	zero,96(s0)
   1266e:	06043c23          	sd	zero,120(s0)
   12672:	08042023          	sw	zero,128(s0)
   12676:	70a2                	ld	ra,40(sp)
   12678:	8522                	mv	a0,s0
   1267a:	7402                	ld	s0,32(sp)
   1267c:	64e2                	ld	s1,24(sp)
   1267e:	6942                	ld	s2,16(sp)
   12680:	69a2                	ld	s3,8(sp)
   12682:	6a02                	ld	s4,0(sp)
   12684:	6145                	addi	sp,sp,48
   12686:	8082                	ret
   12688:	6080                	ld	s0,0(s1)
   1268a:	c419                	beqz	s0,12698 <__sfp+0xa4>
   1268c:	84a2                	mv	s1,s0
   1268e:	b761                	j	12616 <__sfp+0x22>
   12690:	8526                	mv	a0,s1
   12692:	dfdff0ef          	jal	ra,1248e <__sinit.part.0>
   12696:	bf9d                	j	1260c <__sfp+0x18>
   12698:	2d800593          	li	a1,728
   1269c:	854a                	mv	a0,s2
   1269e:	25d020ef          	jal	ra,150fa <_malloc_r>
   126a2:	842a                	mv	s0,a0
   126a4:	cd19                	beqz	a0,126c2 <__sfp+0xce>
   126a6:	0561                	addi	a0,a0,24
   126a8:	00043023          	sd	zero,0(s0)
   126ac:	01442423          	sw	s4,8(s0)
   126b0:	e808                	sd	a0,16(s0)
   126b2:	2c000613          	li	a2,704
   126b6:	4581                	li	a1,0
   126b8:	c3dfd0ef          	jal	ra,102f4 <memset>
   126bc:	e080                	sd	s0,0(s1)
   126be:	84a2                	mv	s1,s0
   126c0:	bf99                	j	12616 <__sfp+0x22>
   126c2:	0004b023          	sd	zero,0(s1)
   126c6:	47b1                	li	a5,12
   126c8:	00f92023          	sw	a5,0(s2)
   126cc:	b76d                	j	12676 <__sfp+0x82>

00000000000126ce <_cleanup>:
   126ce:	7481b503          	ld	a0,1864(gp) # 1f558 <_global_impure_ptr>
   126d2:	65e9                	lui	a1,0x1a
   126d4:	88e58593          	addi	a1,a1,-1906 # 1988e <_fclose_r>
   126d8:	7360006f          	j	12e0e <_fwalk_reent>

00000000000126dc <__sinit>:
   126dc:	493c                	lw	a5,80(a0)
   126de:	c391                	beqz	a5,126e2 <__sinit+0x6>
   126e0:	8082                	ret
   126e2:	b375                	j	1248e <__sinit.part.0>

00000000000126e4 <__sfp_lock_acquire>:
   126e4:	8082                	ret

00000000000126e6 <__sfp_lock_release>:
   126e6:	8082                	ret

00000000000126e8 <__sinit_lock_acquire>:
   126e8:	8082                	ret

00000000000126ea <__sinit_lock_release>:
   126ea:	8082                	ret

00000000000126ec <__fp_lock_all>:
   126ec:	7581b503          	ld	a0,1880(gp) # 1f568 <_impure_ptr>
   126f0:	65c9                	lui	a1,0x12
   126f2:	47c58593          	addi	a1,a1,1148 # 1247c <__fp_lock>
   126f6:	ad59                	j	12d8c <_fwalk>

00000000000126f8 <__fp_unlock_all>:
   126f8:	7581b503          	ld	a0,1880(gp) # 1f568 <_impure_ptr>
   126fc:	65c9                	lui	a1,0x12
   126fe:	48a58593          	addi	a1,a1,1162 # 1248a <__fp_unlock>
   12702:	a569                	j	12d8c <_fwalk>

0000000000012704 <__libc_fini_array>:
   12704:	1101                	addi	sp,sp,-32
   12706:	e822                	sd	s0,16(sp)
   12708:	67f9                	lui	a5,0x1e
   1270a:	6479                	lui	s0,0x1e
   1270c:	42078793          	addi	a5,a5,1056 # 1e420 <__do_global_dtors_aux_fini_array_entry>
   12710:	42840413          	addi	s0,s0,1064 # 1e428 <impure_data>
   12714:	8c1d                	sub	s0,s0,a5
   12716:	e426                	sd	s1,8(sp)
   12718:	ec06                	sd	ra,24(sp)
   1271a:	40345493          	srai	s1,s0,0x3
   1271e:	c881                	beqz	s1,1272e <__libc_fini_array+0x2a>
   12720:	1461                	addi	s0,s0,-8
   12722:	943e                	add	s0,s0,a5
   12724:	601c                	ld	a5,0(s0)
   12726:	14fd                	addi	s1,s1,-1
   12728:	1461                	addi	s0,s0,-8
   1272a:	9782                	jalr	a5
   1272c:	fce5                	bnez	s1,12724 <__libc_fini_array+0x20>
   1272e:	60e2                	ld	ra,24(sp)
   12730:	6442                	ld	s0,16(sp)
   12732:	64a2                	ld	s1,8(sp)
   12734:	6105                	addi	sp,sp,32
   12736:	8082                	ret

0000000000012738 <_malloc_trim_r>:
   12738:	7179                	addi	sp,sp,-48
   1273a:	e44e                	sd	s3,8(sp)
   1273c:	0001f9b7          	lui	s3,0x1f
   12740:	f022                	sd	s0,32(sp)
   12742:	ec26                	sd	s1,24(sp)
   12744:	e84a                	sd	s2,16(sp)
   12746:	e052                	sd	s4,0(sp)
   12748:	f406                	sd	ra,40(sp)
   1274a:	8a2e                	mv	s4,a1
   1274c:	892a                	mv	s2,a0
   1274e:	d1898993          	addi	s3,s3,-744 # 1ed18 <__malloc_av_>
   12752:	24e030ef          	jal	ra,159a0 <__malloc_lock>
   12756:	0109b703          	ld	a4,16(s3)
   1275a:	6785                	lui	a5,0x1
   1275c:	fdf78413          	addi	s0,a5,-33 # fdf <register_fini-0xf0d1>
   12760:	6704                	ld	s1,8(a4)
   12762:	41440433          	sub	s0,s0,s4
   12766:	98f1                	andi	s1,s1,-4
   12768:	9426                	add	s0,s0,s1
   1276a:	8031                	srli	s0,s0,0xc
   1276c:	147d                	addi	s0,s0,-1
   1276e:	0432                	slli	s0,s0,0xc
   12770:	00f44b63          	blt	s0,a5,12786 <_malloc_trim_r+0x4e>
   12774:	4581                	li	a1,0
   12776:	854a                	mv	a0,s2
   12778:	2bc040ef          	jal	ra,16a34 <_sbrk_r>
   1277c:	0109b783          	ld	a5,16(s3)
   12780:	97a6                	add	a5,a5,s1
   12782:	00f50e63          	beq	a0,a5,1279e <_malloc_trim_r+0x66>
   12786:	854a                	mv	a0,s2
   12788:	21a030ef          	jal	ra,159a2 <__malloc_unlock>
   1278c:	70a2                	ld	ra,40(sp)
   1278e:	7402                	ld	s0,32(sp)
   12790:	64e2                	ld	s1,24(sp)
   12792:	6942                	ld	s2,16(sp)
   12794:	69a2                	ld	s3,8(sp)
   12796:	6a02                	ld	s4,0(sp)
   12798:	4501                	li	a0,0
   1279a:	6145                	addi	sp,sp,48
   1279c:	8082                	ret
   1279e:	408005b3          	neg	a1,s0
   127a2:	854a                	mv	a0,s2
   127a4:	290040ef          	jal	ra,16a34 <_sbrk_r>
   127a8:	57fd                	li	a5,-1
   127aa:	02f50b63          	beq	a0,a5,127e0 <_malloc_trim_r+0xa8>
   127ae:	0001f7b7          	lui	a5,0x1f
   127b2:	5e878793          	addi	a5,a5,1512 # 1f5e8 <__malloc_current_mallinfo>
   127b6:	4398                	lw	a4,0(a5)
   127b8:	0109b683          	ld	a3,16(s3)
   127bc:	8c81                	sub	s1,s1,s0
   127be:	0014e493          	ori	s1,s1,1
   127c2:	9f01                	subw	a4,a4,s0
   127c4:	854a                	mv	a0,s2
   127c6:	e684                	sd	s1,8(a3)
   127c8:	c398                	sw	a4,0(a5)
   127ca:	1d8030ef          	jal	ra,159a2 <__malloc_unlock>
   127ce:	70a2                	ld	ra,40(sp)
   127d0:	7402                	ld	s0,32(sp)
   127d2:	64e2                	ld	s1,24(sp)
   127d4:	6942                	ld	s2,16(sp)
   127d6:	69a2                	ld	s3,8(sp)
   127d8:	6a02                	ld	s4,0(sp)
   127da:	4505                	li	a0,1
   127dc:	6145                	addi	sp,sp,48
   127de:	8082                	ret
   127e0:	4581                	li	a1,0
   127e2:	854a                	mv	a0,s2
   127e4:	250040ef          	jal	ra,16a34 <_sbrk_r>
   127e8:	0109b703          	ld	a4,16(s3)
   127ec:	46fd                	li	a3,31
   127ee:	40e507b3          	sub	a5,a0,a4
   127f2:	f8f6dae3          	bge	a3,a5,12786 <_malloc_trim_r+0x4e>
   127f6:	7601b683          	ld	a3,1888(gp) # 1f570 <__malloc_sbrk_base>
   127fa:	0017e793          	ori	a5,a5,1
   127fe:	e71c                	sd	a5,8(a4)
   12800:	8d15                	sub	a0,a0,a3
   12802:	0001f6b7          	lui	a3,0x1f
   12806:	5ea6a423          	sw	a0,1512(a3) # 1f5e8 <__malloc_current_mallinfo>
   1280a:	bfb5                	j	12786 <_malloc_trim_r+0x4e>

000000000001280c <_free_r>:
   1280c:	c9e5                	beqz	a1,128fc <_free_r+0xf0>
   1280e:	1101                	addi	sp,sp,-32
   12810:	e822                	sd	s0,16(sp)
   12812:	e426                	sd	s1,8(sp)
   12814:	842e                	mv	s0,a1
   12816:	84aa                	mv	s1,a0
   12818:	ec06                	sd	ra,24(sp)
   1281a:	186030ef          	jal	ra,159a0 <__malloc_lock>
   1281e:	ff843503          	ld	a0,-8(s0)
   12822:	ff040713          	addi	a4,s0,-16
   12826:	0001f5b7          	lui	a1,0x1f
   1282a:	ffe57793          	andi	a5,a0,-2
   1282e:	00f70633          	add	a2,a4,a5
   12832:	d1858593          	addi	a1,a1,-744 # 1ed18 <__malloc_av_>
   12836:	6614                	ld	a3,8(a2)
   12838:	0105b803          	ld	a6,16(a1)
   1283c:	9af1                	andi	a3,a3,-4
   1283e:	14c80263          	beq	a6,a2,12982 <_free_r+0x176>
   12842:	e614                	sd	a3,8(a2)
   12844:	8905                	andi	a0,a0,1
   12846:	00d60833          	add	a6,a2,a3
   1284a:	e149                	bnez	a0,128cc <_free_r+0xc0>
   1284c:	ff043303          	ld	t1,-16(s0)
   12850:	00883803          	ld	a6,8(a6)
   12854:	0001f537          	lui	a0,0x1f
   12858:	40670733          	sub	a4,a4,t1
   1285c:	01073883          	ld	a7,16(a4)
   12860:	d2850513          	addi	a0,a0,-728 # 1ed28 <__malloc_av_+0x10>
   12864:	979a                	add	a5,a5,t1
   12866:	00187813          	andi	a6,a6,1
   1286a:	0ea88963          	beq	a7,a0,1295c <_free_r+0x150>
   1286e:	01873303          	ld	t1,24(a4)
   12872:	0068bc23          	sd	t1,24(a7)
   12876:	01133823          	sd	a7,16(t1)
   1287a:	14080e63          	beqz	a6,129d6 <_free_r+0x1ca>
   1287e:	0017e693          	ori	a3,a5,1
   12882:	e714                	sd	a3,8(a4)
   12884:	e21c                	sd	a5,0(a2)
   12886:	1ff00693          	li	a3,511
   1288a:	08f6e363          	bltu	a3,a5,12910 <_free_r+0x104>
   1288e:	838d                	srli	a5,a5,0x3
   12890:	0017869b          	addiw	a3,a5,1
   12894:	0016969b          	slliw	a3,a3,0x1
   12898:	068e                	slli	a3,a3,0x3
   1289a:	0085b803          	ld	a6,8(a1)
   1289e:	96ae                	add	a3,a3,a1
   128a0:	6288                	ld	a0,0(a3)
   128a2:	4027d61b          	sraiw	a2,a5,0x2
   128a6:	4785                	li	a5,1
   128a8:	00c797b3          	sll	a5,a5,a2
   128ac:	0107e7b3          	or	a5,a5,a6
   128b0:	ff068613          	addi	a2,a3,-16
   128b4:	ef10                	sd	a2,24(a4)
   128b6:	eb08                	sd	a0,16(a4)
   128b8:	e59c                	sd	a5,8(a1)
   128ba:	e298                	sd	a4,0(a3)
   128bc:	ed18                	sd	a4,24(a0)
   128be:	6442                	ld	s0,16(sp)
   128c0:	60e2                	ld	ra,24(sp)
   128c2:	8526                	mv	a0,s1
   128c4:	64a2                	ld	s1,8(sp)
   128c6:	6105                	addi	sp,sp,32
   128c8:	0da0306f          	j	159a2 <__malloc_unlock>
   128cc:	00883503          	ld	a0,8(a6)
   128d0:	8905                	andi	a0,a0,1
   128d2:	e515                	bnez	a0,128fe <_free_r+0xf2>
   128d4:	0001f537          	lui	a0,0x1f
   128d8:	97b6                	add	a5,a5,a3
   128da:	d2850513          	addi	a0,a0,-728 # 1ed28 <__malloc_av_+0x10>
   128de:	6a14                	ld	a3,16(a2)
   128e0:	0017e893          	ori	a7,a5,1
   128e4:	00f70833          	add	a6,a4,a5
   128e8:	10a68163          	beq	a3,a0,129ea <_free_r+0x1de>
   128ec:	6e10                	ld	a2,24(a2)
   128ee:	ee90                	sd	a2,24(a3)
   128f0:	ea14                	sd	a3,16(a2)
   128f2:	01173423          	sd	a7,8(a4)
   128f6:	00f83023          	sd	a5,0(a6)
   128fa:	b771                	j	12886 <_free_r+0x7a>
   128fc:	8082                	ret
   128fe:	0017e693          	ori	a3,a5,1
   12902:	fed43c23          	sd	a3,-8(s0)
   12906:	e21c                	sd	a5,0(a2)
   12908:	1ff00693          	li	a3,511
   1290c:	f8f6f1e3          	bgeu	a3,a5,1288e <_free_r+0x82>
   12910:	0097d693          	srli	a3,a5,0x9
   12914:	4611                	li	a2,4
   12916:	08d66f63          	bltu	a2,a3,129b4 <_free_r+0x1a8>
   1291a:	0067d693          	srli	a3,a5,0x6
   1291e:	0396851b          	addiw	a0,a3,57
   12922:	0015151b          	slliw	a0,a0,0x1
   12926:	0386861b          	addiw	a2,a3,56
   1292a:	050e                	slli	a0,a0,0x3
   1292c:	952e                	add	a0,a0,a1
   1292e:	6114                	ld	a3,0(a0)
   12930:	1541                	addi	a0,a0,-16
   12932:	0cd50563          	beq	a0,a3,129fc <_free_r+0x1f0>
   12936:	6690                	ld	a2,8(a3)
   12938:	9a71                	andi	a2,a2,-4
   1293a:	00c7f563          	bgeu	a5,a2,12944 <_free_r+0x138>
   1293e:	6a94                	ld	a3,16(a3)
   12940:	fed51be3          	bne	a0,a3,12936 <_free_r+0x12a>
   12944:	6e88                	ld	a0,24(a3)
   12946:	ef08                	sd	a0,24(a4)
   12948:	eb14                	sd	a3,16(a4)
   1294a:	6442                	ld	s0,16(sp)
   1294c:	e918                	sd	a4,16(a0)
   1294e:	60e2                	ld	ra,24(sp)
   12950:	8526                	mv	a0,s1
   12952:	64a2                	ld	s1,8(sp)
   12954:	ee98                	sd	a4,24(a3)
   12956:	6105                	addi	sp,sp,32
   12958:	04a0306f          	j	159a2 <__malloc_unlock>
   1295c:	0e081c63          	bnez	a6,12a54 <_free_r+0x248>
   12960:	6e0c                	ld	a1,24(a2)
   12962:	6a10                	ld	a2,16(a2)
   12964:	96be                	add	a3,a3,a5
   12966:	6442                	ld	s0,16(sp)
   12968:	ee0c                	sd	a1,24(a2)
   1296a:	e990                	sd	a2,16(a1)
   1296c:	0016e793          	ori	a5,a3,1
   12970:	60e2                	ld	ra,24(sp)
   12972:	e71c                	sd	a5,8(a4)
   12974:	8526                	mv	a0,s1
   12976:	9736                	add	a4,a4,a3
   12978:	64a2                	ld	s1,8(sp)
   1297a:	e314                	sd	a3,0(a4)
   1297c:	6105                	addi	sp,sp,32
   1297e:	0240306f          	j	159a2 <__malloc_unlock>
   12982:	8905                	andi	a0,a0,1
   12984:	96be                	add	a3,a3,a5
   12986:	e909                	bnez	a0,12998 <_free_r+0x18c>
   12988:	ff043503          	ld	a0,-16(s0)
   1298c:	8f09                	sub	a4,a4,a0
   1298e:	6f1c                	ld	a5,24(a4)
   12990:	6b10                	ld	a2,16(a4)
   12992:	96aa                	add	a3,a3,a0
   12994:	ee1c                	sd	a5,24(a2)
   12996:	eb90                	sd	a2,16(a5)
   12998:	0016e613          	ori	a2,a3,1
   1299c:	7681b783          	ld	a5,1896(gp) # 1f578 <__malloc_trim_threshold>
   129a0:	e710                	sd	a2,8(a4)
   129a2:	e998                	sd	a4,16(a1)
   129a4:	f0f6ede3          	bltu	a3,a5,128be <_free_r+0xb2>
   129a8:	7881b583          	ld	a1,1928(gp) # 1f598 <__malloc_top_pad>
   129ac:	8526                	mv	a0,s1
   129ae:	d8bff0ef          	jal	ra,12738 <_malloc_trim_r>
   129b2:	b731                	j	128be <_free_r+0xb2>
   129b4:	4651                	li	a2,20
   129b6:	02d67263          	bgeu	a2,a3,129da <_free_r+0x1ce>
   129ba:	05400613          	li	a2,84
   129be:	04d66a63          	bltu	a2,a3,12a12 <_free_r+0x206>
   129c2:	00c7d693          	srli	a3,a5,0xc
   129c6:	06f6851b          	addiw	a0,a3,111
   129ca:	0015151b          	slliw	a0,a0,0x1
   129ce:	06e6861b          	addiw	a2,a3,110
   129d2:	050e                	slli	a0,a0,0x3
   129d4:	bfa1                	j	1292c <_free_r+0x120>
   129d6:	97b6                	add	a5,a5,a3
   129d8:	b719                	j	128de <_free_r+0xd2>
   129da:	05c6851b          	addiw	a0,a3,92
   129de:	0015151b          	slliw	a0,a0,0x1
   129e2:	05b6861b          	addiw	a2,a3,91
   129e6:	050e                	slli	a0,a0,0x3
   129e8:	b791                	j	1292c <_free_r+0x120>
   129ea:	f598                	sd	a4,40(a1)
   129ec:	f198                	sd	a4,32(a1)
   129ee:	ef08                	sd	a0,24(a4)
   129f0:	eb08                	sd	a0,16(a4)
   129f2:	01173423          	sd	a7,8(a4)
   129f6:	00f83023          	sd	a5,0(a6)
   129fa:	b5d1                	j	128be <_free_r+0xb2>
   129fc:	0085b803          	ld	a6,8(a1)
   12a00:	4026561b          	sraiw	a2,a2,0x2
   12a04:	4785                	li	a5,1
   12a06:	00c797b3          	sll	a5,a5,a2
   12a0a:	0107e7b3          	or	a5,a5,a6
   12a0e:	e59c                	sd	a5,8(a1)
   12a10:	bf1d                	j	12946 <_free_r+0x13a>
   12a12:	15400613          	li	a2,340
   12a16:	00d66c63          	bltu	a2,a3,12a2e <_free_r+0x222>
   12a1a:	00f7d693          	srli	a3,a5,0xf
   12a1e:	0786851b          	addiw	a0,a3,120
   12a22:	0015151b          	slliw	a0,a0,0x1
   12a26:	0776861b          	addiw	a2,a3,119
   12a2a:	050e                	slli	a0,a0,0x3
   12a2c:	b701                	j	1292c <_free_r+0x120>
   12a2e:	55400613          	li	a2,1364
   12a32:	00d66c63          	bltu	a2,a3,12a4a <_free_r+0x23e>
   12a36:	0127d693          	srli	a3,a5,0x12
   12a3a:	07d6851b          	addiw	a0,a3,125
   12a3e:	0015151b          	slliw	a0,a0,0x1
   12a42:	07c6861b          	addiw	a2,a3,124
   12a46:	050e                	slli	a0,a0,0x3
   12a48:	b5d5                	j	1292c <_free_r+0x120>
   12a4a:	7f000513          	li	a0,2032
   12a4e:	07e00613          	li	a2,126
   12a52:	bde9                	j	1292c <_free_r+0x120>
   12a54:	0017e693          	ori	a3,a5,1
   12a58:	e714                	sd	a3,8(a4)
   12a5a:	e21c                	sd	a5,0(a2)
   12a5c:	b58d                	j	128be <_free_r+0xb2>

0000000000012a5e <__sfvwrite_r>:
   12a5e:	6a1c                	ld	a5,16(a2)
   12a60:	1a078b63          	beqz	a5,12c16 <__sfvwrite_r+0x1b8>
   12a64:	0105d683          	lhu	a3,16(a1)
   12a68:	711d                	addi	sp,sp,-96
   12a6a:	e8a2                	sd	s0,80(sp)
   12a6c:	f852                	sd	s4,48(sp)
   12a6e:	f456                	sd	s5,40(sp)
   12a70:	ec86                	sd	ra,88(sp)
   12a72:	e4a6                	sd	s1,72(sp)
   12a74:	e0ca                	sd	s2,64(sp)
   12a76:	fc4e                	sd	s3,56(sp)
   12a78:	f05a                	sd	s6,32(sp)
   12a7a:	ec5e                	sd	s7,24(sp)
   12a7c:	e862                	sd	s8,16(sp)
   12a7e:	e466                	sd	s9,8(sp)
   12a80:	e06a                	sd	s10,0(sp)
   12a82:	0086f793          	andi	a5,a3,8
   12a86:	8a32                	mv	s4,a2
   12a88:	8aaa                	mv	s5,a0
   12a8a:	842e                	mv	s0,a1
   12a8c:	cfb9                	beqz	a5,12aea <__sfvwrite_r+0x8c>
   12a8e:	6d9c                	ld	a5,24(a1)
   12a90:	cfa9                	beqz	a5,12aea <__sfvwrite_r+0x8c>
   12a92:	0026f793          	andi	a5,a3,2
   12a96:	000a3903          	ld	s2,0(s4)
   12a9a:	c7ad                	beqz	a5,12b04 <__sfvwrite_r+0xa6>
   12a9c:	603c                	ld	a5,64(s0)
   12a9e:	780c                	ld	a1,48(s0)
   12aa0:	80000b37          	lui	s6,0x80000
   12aa4:	4981                	li	s3,0
   12aa6:	4481                	li	s1,0
   12aa8:	c00b4b13          	xori	s6,s6,-1024
   12aac:	864e                	mv	a2,s3
   12aae:	8556                	mv	a0,s5
   12ab0:	c49d                	beqz	s1,12ade <__sfvwrite_r+0x80>
   12ab2:	86a6                	mv	a3,s1
   12ab4:	009b7363          	bgeu	s6,s1,12aba <__sfvwrite_r+0x5c>
   12ab8:	86da                	mv	a3,s6
   12aba:	2681                	sext.w	a3,a3
   12abc:	9782                	jalr	a5
   12abe:	14a05463          	blez	a0,12c06 <__sfvwrite_r+0x1a8>
   12ac2:	010a3783          	ld	a5,16(s4)
   12ac6:	99aa                	add	s3,s3,a0
   12ac8:	8c89                	sub	s1,s1,a0
   12aca:	8f89                	sub	a5,a5,a0
   12acc:	00fa3823          	sd	a5,16(s4)
   12ad0:	10078763          	beqz	a5,12bde <__sfvwrite_r+0x180>
   12ad4:	603c                	ld	a5,64(s0)
   12ad6:	780c                	ld	a1,48(s0)
   12ad8:	864e                	mv	a2,s3
   12ada:	8556                	mv	a0,s5
   12adc:	f8f9                	bnez	s1,12ab2 <__sfvwrite_r+0x54>
   12ade:	00093983          	ld	s3,0(s2)
   12ae2:	00893483          	ld	s1,8(s2)
   12ae6:	0941                	addi	s2,s2,16
   12ae8:	b7d1                	j	12aac <__sfvwrite_r+0x4e>
   12aea:	85a2                	mv	a1,s0
   12aec:	8556                	mv	a0,s5
   12aee:	dc0ff0ef          	jal	ra,120ae <__swsetup_r>
   12af2:	28051b63          	bnez	a0,12d88 <__sfvwrite_r+0x32a>
   12af6:	01045683          	lhu	a3,16(s0)
   12afa:	000a3903          	ld	s2,0(s4)
   12afe:	0026f793          	andi	a5,a3,2
   12b02:	ffc9                	bnez	a5,12a9c <__sfvwrite_r+0x3e>
   12b04:	0016f793          	andi	a5,a3,1
   12b08:	ebbd                	bnez	a5,12b7e <__sfvwrite_r+0x120>
   12b0a:	4444                	lw	s1,12(s0)
   12b0c:	601c                	ld	a5,0(s0)
   12b0e:	80000b37          	lui	s6,0x80000
   12b12:	ffeb4b93          	xori	s7,s6,-2
   12b16:	4c01                	li	s8,0
   12b18:	4981                	li	s3,0
   12b1a:	fffb4b13          	not	s6,s6
   12b1e:	853e                	mv	a0,a5
   12b20:	8ca6                	mv	s9,s1
   12b22:	04098863          	beqz	s3,12b72 <__sfvwrite_r+0x114>
   12b26:	2006f713          	andi	a4,a3,512
   12b2a:	12070a63          	beqz	a4,12c5e <__sfvwrite_r+0x200>
   12b2e:	8d26                	mv	s10,s1
   12b30:	1899f863          	bgeu	s3,s1,12cc0 <__sfvwrite_r+0x262>
   12b34:	8cce                	mv	s9,s3
   12b36:	8d4e                	mv	s10,s3
   12b38:	866a                	mv	a2,s10
   12b3a:	85e2                	mv	a1,s8
   12b3c:	58f020ef          	jal	ra,158ca <memmove>
   12b40:	4458                	lw	a4,12(s0)
   12b42:	601c                	ld	a5,0(s0)
   12b44:	84ce                	mv	s1,s3
   12b46:	4197073b          	subw	a4,a4,s9
   12b4a:	9d3e                	add	s10,s10,a5
   12b4c:	c458                	sw	a4,12(s0)
   12b4e:	01a43023          	sd	s10,0(s0)
   12b52:	4981                	li	s3,0
   12b54:	010a3783          	ld	a5,16(s4)
   12b58:	9c26                	add	s8,s8,s1
   12b5a:	8f85                	sub	a5,a5,s1
   12b5c:	00fa3823          	sd	a5,16(s4)
   12b60:	cfbd                	beqz	a5,12bde <__sfvwrite_r+0x180>
   12b62:	4444                	lw	s1,12(s0)
   12b64:	601c                	ld	a5,0(s0)
   12b66:	01045683          	lhu	a3,16(s0)
   12b6a:	8ca6                	mv	s9,s1
   12b6c:	853e                	mv	a0,a5
   12b6e:	fa099ce3          	bnez	s3,12b26 <__sfvwrite_r+0xc8>
   12b72:	00093c03          	ld	s8,0(s2)
   12b76:	00893983          	ld	s3,8(s2)
   12b7a:	0941                	addi	s2,s2,16
   12b7c:	b74d                	j	12b1e <__sfvwrite_r+0xc0>
   12b7e:	4b81                	li	s7,0
   12b80:	4501                	li	a0,0
   12b82:	4c81                	li	s9,0
   12b84:	4c01                	li	s8,0
   12b86:	080c0a63          	beqz	s8,12c1a <__sfvwrite_r+0x1bc>
   12b8a:	c145                	beqz	a0,12c2a <__sfvwrite_r+0x1cc>
   12b8c:	8b5e                	mv	s6,s7
   12b8e:	017c7363          	bgeu	s8,s7,12b94 <__sfvwrite_r+0x136>
   12b92:	8b62                	mv	s6,s8
   12b94:	6008                	ld	a0,0(s0)
   12b96:	6c18                	ld	a4,24(s0)
   12b98:	445c                	lw	a5,12(s0)
   12b9a:	5014                	lw	a3,32(s0)
   12b9c:	84da                	mv	s1,s6
   12b9e:	00a77663          	bgeu	a4,a0,12baa <__sfvwrite_r+0x14c>
   12ba2:	00d789bb          	addw	s3,a5,a3
   12ba6:	0969cd63          	blt	s3,s6,12c40 <__sfvwrite_r+0x1e2>
   12baa:	18db4663          	blt	s6,a3,12d36 <__sfvwrite_r+0x2d8>
   12bae:	603c                	ld	a5,64(s0)
   12bb0:	780c                	ld	a1,48(s0)
   12bb2:	8666                	mv	a2,s9
   12bb4:	8556                	mv	a0,s5
   12bb6:	9782                	jalr	a5
   12bb8:	84aa                	mv	s1,a0
   12bba:	04a05663          	blez	a0,12c06 <__sfvwrite_r+0x1a8>
   12bbe:	0005079b          	sext.w	a5,a0
   12bc2:	40fb8bbb          	subw	s7,s7,a5
   12bc6:	4505                	li	a0,1
   12bc8:	020b8a63          	beqz	s7,12bfc <__sfvwrite_r+0x19e>
   12bcc:	010a3783          	ld	a5,16(s4)
   12bd0:	9ca6                	add	s9,s9,s1
   12bd2:	409c0c33          	sub	s8,s8,s1
   12bd6:	8f85                	sub	a5,a5,s1
   12bd8:	00fa3823          	sd	a5,16(s4)
   12bdc:	f7cd                	bnez	a5,12b86 <__sfvwrite_r+0x128>
   12bde:	4501                	li	a0,0
   12be0:	60e6                	ld	ra,88(sp)
   12be2:	6446                	ld	s0,80(sp)
   12be4:	64a6                	ld	s1,72(sp)
   12be6:	6906                	ld	s2,64(sp)
   12be8:	79e2                	ld	s3,56(sp)
   12bea:	7a42                	ld	s4,48(sp)
   12bec:	7aa2                	ld	s5,40(sp)
   12bee:	7b02                	ld	s6,32(sp)
   12bf0:	6be2                	ld	s7,24(sp)
   12bf2:	6c42                	ld	s8,16(sp)
   12bf4:	6ca2                	ld	s9,8(sp)
   12bf6:	6d02                	ld	s10,0(sp)
   12bf8:	6125                	addi	sp,sp,96
   12bfa:	8082                	ret
   12bfc:	85a2                	mv	a1,s0
   12bfe:	8556                	mv	a0,s5
   12c00:	ffaff0ef          	jal	ra,123fa <_fflush_r>
   12c04:	d561                	beqz	a0,12bcc <__sfvwrite_r+0x16e>
   12c06:	01041783          	lh	a5,16(s0)
   12c0a:	0407e793          	ori	a5,a5,64
   12c0e:	00f41823          	sh	a5,16(s0)
   12c12:	557d                	li	a0,-1
   12c14:	b7f1                	j	12be0 <__sfvwrite_r+0x182>
   12c16:	4501                	li	a0,0
   12c18:	8082                	ret
   12c1a:	00893c03          	ld	s8,8(s2)
   12c1e:	87ca                	mv	a5,s2
   12c20:	0941                	addi	s2,s2,16
   12c22:	fe0c0ce3          	beqz	s8,12c1a <__sfvwrite_r+0x1bc>
   12c26:	0007bc83          	ld	s9,0(a5)
   12c2a:	8662                	mv	a2,s8
   12c2c:	45a9                	li	a1,10
   12c2e:	8566                	mv	a0,s9
   12c30:	325020ef          	jal	ra,15754 <memchr>
   12c34:	14050163          	beqz	a0,12d76 <__sfvwrite_r+0x318>
   12c38:	0505                	addi	a0,a0,1
   12c3a:	41950bbb          	subw	s7,a0,s9
   12c3e:	b7b9                	j	12b8c <__sfvwrite_r+0x12e>
   12c40:	85e6                	mv	a1,s9
   12c42:	864e                	mv	a2,s3
   12c44:	487020ef          	jal	ra,158ca <memmove>
   12c48:	601c                	ld	a5,0(s0)
   12c4a:	85a2                	mv	a1,s0
   12c4c:	8556                	mv	a0,s5
   12c4e:	97ce                	add	a5,a5,s3
   12c50:	e01c                	sd	a5,0(s0)
   12c52:	fa8ff0ef          	jal	ra,123fa <_fflush_r>
   12c56:	f945                	bnez	a0,12c06 <__sfvwrite_r+0x1a8>
   12c58:	87ce                	mv	a5,s3
   12c5a:	84ce                	mv	s1,s3
   12c5c:	b79d                	j	12bc2 <__sfvwrite_r+0x164>
   12c5e:	6c18                	ld	a4,24(s0)
   12c60:	02f76863          	bltu	a4,a5,12c90 <__sfvwrite_r+0x232>
   12c64:	5018                	lw	a4,32(s0)
   12c66:	02e9e563          	bltu	s3,a4,12c90 <__sfvwrite_r+0x232>
   12c6a:	86ce                	mv	a3,s3
   12c6c:	013bf363          	bgeu	s7,s3,12c72 <__sfvwrite_r+0x214>
   12c70:	86da                	mv	a3,s6
   12c72:	02e6c6bb          	divw	a3,a3,a4
   12c76:	603c                	ld	a5,64(s0)
   12c78:	780c                	ld	a1,48(s0)
   12c7a:	8662                	mv	a2,s8
   12c7c:	8556                	mv	a0,s5
   12c7e:	02e686bb          	mulw	a3,a3,a4
   12c82:	9782                	jalr	a5
   12c84:	84aa                	mv	s1,a0
   12c86:	f8a050e3          	blez	a0,12c06 <__sfvwrite_r+0x1a8>
   12c8a:	409989b3          	sub	s3,s3,s1
   12c8e:	b5d9                	j	12b54 <__sfvwrite_r+0xf6>
   12c90:	0099f363          	bgeu	s3,s1,12c96 <__sfvwrite_r+0x238>
   12c94:	84ce                	mv	s1,s3
   12c96:	853e                	mv	a0,a5
   12c98:	8626                	mv	a2,s1
   12c9a:	85e2                	mv	a1,s8
   12c9c:	42f020ef          	jal	ra,158ca <memmove>
   12ca0:	4458                	lw	a4,12(s0)
   12ca2:	601c                	ld	a5,0(s0)
   12ca4:	409706bb          	subw	a3,a4,s1
   12ca8:	97a6                	add	a5,a5,s1
   12caa:	c454                	sw	a3,12(s0)
   12cac:	e01c                	sd	a5,0(s0)
   12cae:	fef1                	bnez	a3,12c8a <__sfvwrite_r+0x22c>
   12cb0:	85a2                	mv	a1,s0
   12cb2:	8556                	mv	a0,s5
   12cb4:	f46ff0ef          	jal	ra,123fa <_fflush_r>
   12cb8:	f539                	bnez	a0,12c06 <__sfvwrite_r+0x1a8>
   12cba:	409989b3          	sub	s3,s3,s1
   12cbe:	bd59                	j	12b54 <__sfvwrite_r+0xf6>
   12cc0:	4806f713          	andi	a4,a3,1152
   12cc4:	e6070ae3          	beqz	a4,12b38 <__sfvwrite_r+0xda>
   12cc8:	5010                	lw	a2,32(s0)
   12cca:	6c0c                	ld	a1,24(s0)
   12ccc:	0016171b          	slliw	a4,a2,0x1
   12cd0:	9f31                	addw	a4,a4,a2
   12cd2:	8f8d                	sub	a5,a5,a1
   12cd4:	01f7549b          	srliw	s1,a4,0x1f
   12cd8:	00078d1b          	sext.w	s10,a5
   12cdc:	9cb9                	addw	s1,s1,a4
   12cde:	001d0713          	addi	a4,s10,1
   12ce2:	4014d49b          	sraiw	s1,s1,0x1
   12ce6:	974e                	add	a4,a4,s3
   12ce8:	00e4f663          	bgeu	s1,a4,12cf4 <__sfvwrite_r+0x296>
   12cec:	0017871b          	addiw	a4,a5,1
   12cf0:	013704bb          	addw	s1,a4,s3
   12cf4:	4006f693          	andi	a3,a3,1024
   12cf8:	cea9                	beqz	a3,12d52 <__sfvwrite_r+0x2f4>
   12cfa:	85a6                	mv	a1,s1
   12cfc:	8556                	mv	a0,s5
   12cfe:	3fc020ef          	jal	ra,150fa <_malloc_r>
   12d02:	8caa                	mv	s9,a0
   12d04:	cd25                	beqz	a0,12d7c <__sfvwrite_r+0x31e>
   12d06:	6c0c                	ld	a1,24(s0)
   12d08:	866a                	mv	a2,s10
   12d0a:	2d9020ef          	jal	ra,157e2 <memcpy>
   12d0e:	01045783          	lhu	a5,16(s0)
   12d12:	b7f7f793          	andi	a5,a5,-1153
   12d16:	0807e793          	ori	a5,a5,128
   12d1a:	00f41823          	sh	a5,16(s0)
   12d1e:	01ac8533          	add	a0,s9,s10
   12d22:	41a487bb          	subw	a5,s1,s10
   12d26:	01943c23          	sd	s9,24(s0)
   12d2a:	e008                	sd	a0,0(s0)
   12d2c:	d004                	sw	s1,32(s0)
   12d2e:	8cce                	mv	s9,s3
   12d30:	c45c                	sw	a5,12(s0)
   12d32:	8d4e                	mv	s10,s3
   12d34:	b511                	j	12b38 <__sfvwrite_r+0xda>
   12d36:	865a                	mv	a2,s6
   12d38:	85e6                	mv	a1,s9
   12d3a:	391020ef          	jal	ra,158ca <memmove>
   12d3e:	4454                	lw	a3,12(s0)
   12d40:	6018                	ld	a4,0(s0)
   12d42:	000b079b          	sext.w	a5,s6
   12d46:	416686bb          	subw	a3,a3,s6
   12d4a:	975a                	add	a4,a4,s6
   12d4c:	c454                	sw	a3,12(s0)
   12d4e:	e018                	sd	a4,0(s0)
   12d50:	bd8d                	j	12bc2 <__sfvwrite_r+0x164>
   12d52:	8626                	mv	a2,s1
   12d54:	8556                	mv	a0,s5
   12d56:	0f7030ef          	jal	ra,1664c <_realloc_r>
   12d5a:	8caa                	mv	s9,a0
   12d5c:	f169                	bnez	a0,12d1e <__sfvwrite_r+0x2c0>
   12d5e:	6c0c                	ld	a1,24(s0)
   12d60:	8556                	mv	a0,s5
   12d62:	aabff0ef          	jal	ra,1280c <_free_r>
   12d66:	01041783          	lh	a5,16(s0)
   12d6a:	4731                	li	a4,12
   12d6c:	00eaa023          	sw	a4,0(s5)
   12d70:	f7f7f793          	andi	a5,a5,-129
   12d74:	bd59                	j	12c0a <__sfvwrite_r+0x1ac>
   12d76:	001c0b9b          	addiw	s7,s8,1
   12d7a:	bd09                	j	12b8c <__sfvwrite_r+0x12e>
   12d7c:	4731                	li	a4,12
   12d7e:	01041783          	lh	a5,16(s0)
   12d82:	00eaa023          	sw	a4,0(s5)
   12d86:	b551                	j	12c0a <__sfvwrite_r+0x1ac>
   12d88:	557d                	li	a0,-1
   12d8a:	bd99                	j	12be0 <__sfvwrite_r+0x182>

0000000000012d8c <_fwalk>:
   12d8c:	715d                	addi	sp,sp,-80
   12d8e:	f84a                	sd	s2,48(sp)
   12d90:	f44e                	sd	s3,40(sp)
   12d92:	f052                	sd	s4,32(sp)
   12d94:	ec56                	sd	s5,24(sp)
   12d96:	e85a                	sd	s6,16(sp)
   12d98:	e45e                	sd	s7,8(sp)
   12d9a:	e486                	sd	ra,72(sp)
   12d9c:	e0a2                	sd	s0,64(sp)
   12d9e:	fc26                	sd	s1,56(sp)
   12da0:	8a2e                	mv	s4,a1
   12da2:	52050913          	addi	s2,a0,1312
   12da6:	4b01                	li	s6,0
   12da8:	0b000a93          	li	s5,176
   12dac:	4b85                	li	s7,1
   12dae:	59fd                	li	s3,-1
   12db0:	00892783          	lw	a5,8(s2)
   12db4:	01093403          	ld	s0,16(s2)
   12db8:	02f05b63          	blez	a5,12dee <_fwalk+0x62>
   12dbc:	fff7849b          	addiw	s1,a5,-1
   12dc0:	1482                	slli	s1,s1,0x20
   12dc2:	9081                	srli	s1,s1,0x20
   12dc4:	0485                	addi	s1,s1,1
   12dc6:	035484b3          	mul	s1,s1,s5
   12dca:	94a2                	add	s1,s1,s0
   12dcc:	01045783          	lhu	a5,16(s0)
   12dd0:	00fbfb63          	bgeu	s7,a5,12de6 <_fwalk+0x5a>
   12dd4:	01241783          	lh	a5,18(s0)
   12dd8:	8522                	mv	a0,s0
   12dda:	01378663          	beq	a5,s3,12de6 <_fwalk+0x5a>
   12dde:	9a02                	jalr	s4
   12de0:	01656b33          	or	s6,a0,s6
   12de4:	2b01                	sext.w	s6,s6
   12de6:	0b040413          	addi	s0,s0,176
   12dea:	fe8491e3          	bne	s1,s0,12dcc <_fwalk+0x40>
   12dee:	00093903          	ld	s2,0(s2)
   12df2:	fa091fe3          	bnez	s2,12db0 <_fwalk+0x24>
   12df6:	60a6                	ld	ra,72(sp)
   12df8:	6406                	ld	s0,64(sp)
   12dfa:	74e2                	ld	s1,56(sp)
   12dfc:	7942                	ld	s2,48(sp)
   12dfe:	79a2                	ld	s3,40(sp)
   12e00:	7a02                	ld	s4,32(sp)
   12e02:	6ae2                	ld	s5,24(sp)
   12e04:	6ba2                	ld	s7,8(sp)
   12e06:	855a                	mv	a0,s6
   12e08:	6b42                	ld	s6,16(sp)
   12e0a:	6161                	addi	sp,sp,80
   12e0c:	8082                	ret

0000000000012e0e <_fwalk_reent>:
   12e0e:	715d                	addi	sp,sp,-80
   12e10:	f84a                	sd	s2,48(sp)
   12e12:	f44e                	sd	s3,40(sp)
   12e14:	f052                	sd	s4,32(sp)
   12e16:	ec56                	sd	s5,24(sp)
   12e18:	e85a                	sd	s6,16(sp)
   12e1a:	e45e                	sd	s7,8(sp)
   12e1c:	e062                	sd	s8,0(sp)
   12e1e:	e486                	sd	ra,72(sp)
   12e20:	e0a2                	sd	s0,64(sp)
   12e22:	fc26                	sd	s1,56(sp)
   12e24:	8c2a                	mv	s8,a0
   12e26:	8a2e                	mv	s4,a1
   12e28:	52050913          	addi	s2,a0,1312
   12e2c:	4b01                	li	s6,0
   12e2e:	0b000a93          	li	s5,176
   12e32:	4b85                	li	s7,1
   12e34:	59fd                	li	s3,-1
   12e36:	00892783          	lw	a5,8(s2)
   12e3a:	01093403          	ld	s0,16(s2)
   12e3e:	02f05c63          	blez	a5,12e76 <_fwalk_reent+0x68>
   12e42:	fff7849b          	addiw	s1,a5,-1
   12e46:	1482                	slli	s1,s1,0x20
   12e48:	9081                	srli	s1,s1,0x20
   12e4a:	0485                	addi	s1,s1,1
   12e4c:	035484b3          	mul	s1,s1,s5
   12e50:	94a2                	add	s1,s1,s0
   12e52:	01045783          	lhu	a5,16(s0)
   12e56:	00fbfc63          	bgeu	s7,a5,12e6e <_fwalk_reent+0x60>
   12e5a:	01241783          	lh	a5,18(s0)
   12e5e:	85a2                	mv	a1,s0
   12e60:	8562                	mv	a0,s8
   12e62:	01378663          	beq	a5,s3,12e6e <_fwalk_reent+0x60>
   12e66:	9a02                	jalr	s4
   12e68:	01656b33          	or	s6,a0,s6
   12e6c:	2b01                	sext.w	s6,s6
   12e6e:	0b040413          	addi	s0,s0,176
   12e72:	fe8490e3          	bne	s1,s0,12e52 <_fwalk_reent+0x44>
   12e76:	00093903          	ld	s2,0(s2)
   12e7a:	fa091ee3          	bnez	s2,12e36 <_fwalk_reent+0x28>
   12e7e:	60a6                	ld	ra,72(sp)
   12e80:	6406                	ld	s0,64(sp)
   12e82:	74e2                	ld	s1,56(sp)
   12e84:	7942                	ld	s2,48(sp)
   12e86:	79a2                	ld	s3,40(sp)
   12e88:	7a02                	ld	s4,32(sp)
   12e8a:	6ae2                	ld	s5,24(sp)
   12e8c:	6ba2                	ld	s7,8(sp)
   12e8e:	6c02                	ld	s8,0(sp)
   12e90:	855a                	mv	a0,s6
   12e92:	6b42                	ld	s6,16(sp)
   12e94:	6161                	addi	sp,sp,80
   12e96:	8082                	ret

0000000000012e98 <eshdn1>:
   12e98:	00450693          	addi	a3,a0,4
   12e9c:	4781                	li	a5,0
   12e9e:	0569                	addi	a0,a0,26
   12ea0:	7861                	lui	a6,0xffff8
   12ea2:	a811                	j	12eb6 <eshdn1+0x1e>
   12ea4:	0017979b          	slliw	a5,a5,0x1
   12ea8:	00e69023          	sh	a4,0(a3)
   12eac:	17c2                	slli	a5,a5,0x30
   12eae:	0689                	addi	a3,a3,2
   12eb0:	93c1                	srli	a5,a5,0x30
   12eb2:	02d50863          	beq	a0,a3,12ee2 <eshdn1+0x4a>
   12eb6:	0006d703          	lhu	a4,0(a3)
   12eba:	00177613          	andi	a2,a4,1
   12ebe:	c219                	beqz	a2,12ec4 <eshdn1+0x2c>
   12ec0:	0017e793          	ori	a5,a5,1
   12ec4:	8305                	srli	a4,a4,0x1
   12ec6:	0027f613          	andi	a2,a5,2
   12eca:	010765b3          	or	a1,a4,a6
   12ece:	da79                	beqz	a2,12ea4 <eshdn1+0xc>
   12ed0:	0017979b          	slliw	a5,a5,0x1
   12ed4:	00b69023          	sh	a1,0(a3)
   12ed8:	17c2                	slli	a5,a5,0x30
   12eda:	0689                	addi	a3,a3,2
   12edc:	93c1                	srli	a5,a5,0x30
   12ede:	fcd51ce3          	bne	a0,a3,12eb6 <eshdn1+0x1e>
   12ee2:	8082                	ret

0000000000012ee4 <eshup1>:
   12ee4:	01850693          	addi	a3,a0,24
   12ee8:	4701                	li	a4,0
   12eea:	0509                	addi	a0,a0,2
   12eec:	a811                	j	12f00 <eshup1+0x1c>
   12eee:	0017171b          	slliw	a4,a4,0x1
   12ef2:	00f69023          	sh	a5,0(a3)
   12ef6:	1742                	slli	a4,a4,0x30
   12ef8:	16f9                	addi	a3,a3,-2
   12efa:	9341                	srli	a4,a4,0x30
   12efc:	02d50b63          	beq	a0,a3,12f32 <eshup1+0x4e>
   12f00:	0006d783          	lhu	a5,0(a3)
   12f04:	00f7d613          	srli	a2,a5,0xf
   12f08:	0017979b          	slliw	a5,a5,0x1
   12f0c:	c219                	beqz	a2,12f12 <eshup1+0x2e>
   12f0e:	00176713          	ori	a4,a4,1
   12f12:	17c2                	slli	a5,a5,0x30
   12f14:	93c1                	srli	a5,a5,0x30
   12f16:	00277613          	andi	a2,a4,2
   12f1a:	0017e593          	ori	a1,a5,1
   12f1e:	da61                	beqz	a2,12eee <eshup1+0xa>
   12f20:	0017171b          	slliw	a4,a4,0x1
   12f24:	00b69023          	sh	a1,0(a3)
   12f28:	1742                	slli	a4,a4,0x30
   12f2a:	16f9                	addi	a3,a3,-2
   12f2c:	9341                	srli	a4,a4,0x30
   12f2e:	fcd519e3          	bne	a0,a3,12f00 <eshup1+0x1c>
   12f32:	8082                	ret

0000000000012f34 <m16m>:
   12f34:	1101                	addi	sp,sp,-32
   12f36:	6e41                	lui	t3,0x10
   12f38:	00011b23          	sh	zero,22(sp)
   12f3c:	00011c23          	sh	zero,24(sp)
   12f40:	05e1                	addi	a1,a1,24
   12f42:	083c                	addi	a5,sp,24
   12f44:	00410813          	addi	a6,sp,4
   12f48:	1e7d                	addi	t3,t3,-1
   12f4a:	0005d703          	lhu	a4,0(a1)
   12f4e:	17f9                	addi	a5,a5,-2
   12f50:	15f9                	addi	a1,a1,-2
   12f52:	c705                	beqz	a4,12f7a <m16m+0x46>
   12f54:	02a70733          	mul	a4,a4,a0
   12f58:	0027d883          	lhu	a7,2(a5)
   12f5c:	0007d303          	lhu	t1,0(a5)
   12f60:	01c776b3          	and	a3,a4,t3
   12f64:	96c6                	add	a3,a3,a7
   12f66:	8341                	srli	a4,a4,0x10
   12f68:	0106d893          	srli	a7,a3,0x10
   12f6c:	971a                	add	a4,a4,t1
   12f6e:	9746                	add	a4,a4,a7
   12f70:	00e79023          	sh	a4,0(a5)
   12f74:	00d79123          	sh	a3,2(a5)
   12f78:	8341                	srli	a4,a4,0x10
   12f7a:	fee79f23          	sh	a4,-2(a5)
   12f7e:	fd0796e3          	bne	a5,a6,12f4a <m16m+0x16>
   12f82:	0611                	addi	a2,a2,4
   12f84:	01a10693          	addi	a3,sp,26
   12f88:	0007d703          	lhu	a4,0(a5)
   12f8c:	0789                	addi	a5,a5,2
   12f8e:	0609                	addi	a2,a2,2
   12f90:	fee61f23          	sh	a4,-2(a2)
   12f94:	fed79ae3          	bne	a5,a3,12f88 <m16m+0x54>
   12f98:	6105                	addi	sp,sp,32
   12f9a:	8082                	ret

0000000000012f9c <emovo.constprop.0>:
   12f9c:	00055703          	lhu	a4,0(a0)
   12fa0:	00255783          	lhu	a5,2(a0)
   12fa4:	c319                	beqz	a4,12faa <emovo.constprop.0+0xe>
   12fa6:	6721                	lui	a4,0x8
   12fa8:	8fd9                	or	a5,a5,a4
   12faa:	00f59923          	sh	a5,18(a1)
   12fae:	00255703          	lhu	a4,2(a0)
   12fb2:	67a1                	lui	a5,0x8
   12fb4:	17fd                	addi	a5,a5,-1
   12fb6:	00f70f63          	beq	a4,a5,12fd4 <emovo.constprop.0+0x38>
   12fba:	00650793          	addi	a5,a0,6
   12fbe:	05c1                	addi	a1,a1,16
   12fc0:	0561                	addi	a0,a0,24
   12fc2:	0007d703          	lhu	a4,0(a5) # 8000 <register_fini-0x80b0>
   12fc6:	0789                	addi	a5,a5,2
   12fc8:	15f9                	addi	a1,a1,-2
   12fca:	00e59123          	sh	a4,2(a1)
   12fce:	fea79ae3          	bne	a5,a0,12fc2 <emovo.constprop.0+0x26>
   12fd2:	8082                	ret
   12fd4:	00650793          	addi	a5,a0,6
   12fd8:	0569                	addi	a0,a0,26
   12fda:	0007d703          	lhu	a4,0(a5)
   12fde:	0789                	addi	a5,a5,2
   12fe0:	e31d                	bnez	a4,13006 <emovo.constprop.0+0x6a>
   12fe2:	fea79ce3          	bne	a5,a0,12fda <emovo.constprop.0+0x3e>
   12fe6:	01258713          	addi	a4,a1,18
   12fea:	87ae                	mv	a5,a1
   12fec:	0789                	addi	a5,a5,2
   12fee:	fe079f23          	sh	zero,-2(a5)
   12ff2:	fef71de3          	bne	a4,a5,12fec <emovo.constprop.0+0x50>
   12ff6:	0125d783          	lhu	a5,18(a1)
   12ffa:	6721                	lui	a4,0x8
   12ffc:	177d                	addi	a4,a4,-1
   12ffe:	8fd9                	or	a5,a5,a4
   13000:	00f59923          	sh	a5,18(a1)
   13004:	8082                	ret
   13006:	01058713          	addi	a4,a1,16
   1300a:	87ae                	mv	a5,a1
   1300c:	0789                	addi	a5,a5,2
   1300e:	fe079f23          	sh	zero,-2(a5)
   13012:	fef71de3          	bne	a4,a5,1300c <emovo.constprop.0+0x70>
   13016:	77f1                	lui	a5,0xffffc
   13018:	00f59823          	sh	a5,16(a1)
   1301c:	77e1                	lui	a5,0xffff8
   1301e:	fff7c793          	not	a5,a5
   13022:	00f59923          	sh	a5,18(a1)
   13026:	8082                	ret

0000000000013028 <enormlz>:
   13028:	00455783          	lhu	a5,4(a0)
   1302c:	1101                	addi	sp,sp,-32
   1302e:	e426                	sd	s1,8(sp)
   13030:	ec06                	sd	ra,24(sp)
   13032:	e822                	sd	s0,16(sp)
   13034:	e04a                	sd	s2,0(sp)
   13036:	84aa                	mv	s1,a0
   13038:	efc9                	bnez	a5,130d2 <enormlz+0xaa>
   1303a:	00655703          	lhu	a4,6(a0)
   1303e:	4401                	li	s0,0
   13040:	00f75793          	srli	a5,a4,0xf
   13044:	e3c1                	bnez	a5,130c4 <enormlz+0x9c>
   13046:	01a50693          	addi	a3,a0,26
   1304a:	0a000613          	li	a2,160
   1304e:	e31d                	bnez	a4,13074 <enormlz+0x4c>
   13050:	00648793          	addi	a5,s1,6
   13054:	a019                	j	1305a <enormlz+0x32>
   13056:	0007d703          	lhu	a4,0(a5) # ffffffffffff8000 <__BSS_END__+0xfffffffffffd89f0>
   1305a:	0789                	addi	a5,a5,2
   1305c:	fee79e23          	sh	a4,-4(a5)
   13060:	fed79be3          	bne	a5,a3,13056 <enormlz+0x2e>
   13064:	00049c23          	sh	zero,24(s1)
   13068:	2441                	addiw	s0,s0,16
   1306a:	04c40d63          	beq	s0,a2,130c4 <enormlz+0x9c>
   1306e:	0064d703          	lhu	a4,6(s1)
   13072:	df79                	beqz	a4,13050 <enormlz+0x28>
   13074:	f0077793          	andi	a5,a4,-256
   13078:	eb8d                	bnez	a5,130aa <enormlz+0x82>
   1307a:	01848513          	addi	a0,s1,24
   1307e:	00248593          	addi	a1,s1,2
   13082:	4781                	li	a5,0
   13084:	872a                	mv	a4,a0
   13086:	00075683          	lhu	a3,0(a4) # 8000 <register_fini-0x80b0>
   1308a:	1779                	addi	a4,a4,-2
   1308c:	0086961b          	slliw	a2,a3,0x8
   13090:	8fd1                	or	a5,a5,a2
   13092:	00f71123          	sh	a5,2(a4)
   13096:	0086d793          	srli	a5,a3,0x8
   1309a:	feb716e3          	bne	a4,a1,13086 <enormlz+0x5e>
   1309e:	0064d703          	lhu	a4,6(s1)
   130a2:	2421                	addiw	s0,s0,8
   130a4:	f0077793          	andi	a5,a4,-256
   130a8:	dfe9                	beqz	a5,13082 <enormlz+0x5a>
   130aa:	0a000913          	li	s2,160
   130ae:	a801                	j	130be <enormlz+0x96>
   130b0:	2405                	addiw	s0,s0,1
   130b2:	e33ff0ef          	jal	ra,12ee4 <eshup1>
   130b6:	00894763          	blt	s2,s0,130c4 <enormlz+0x9c>
   130ba:	0064d703          	lhu	a4,6(s1)
   130be:	833d                	srli	a4,a4,0xf
   130c0:	8526                	mv	a0,s1
   130c2:	d77d                	beqz	a4,130b0 <enormlz+0x88>
   130c4:	60e2                	ld	ra,24(sp)
   130c6:	8522                	mv	a0,s0
   130c8:	6442                	ld	s0,16(sp)
   130ca:	64a2                	ld	s1,8(sp)
   130cc:	6902                	ld	s2,0(sp)
   130ce:	6105                	addi	sp,sp,32
   130d0:	8082                	ret
   130d2:	f007f713          	andi	a4,a5,-256
   130d6:	4401                	li	s0,0
   130d8:	e705                	bnez	a4,13100 <enormlz+0xd8>
   130da:	f6f00913          	li	s2,-145
   130de:	a801                	j	130ee <enormlz+0xc6>
   130e0:	347d                	addiw	s0,s0,-1
   130e2:	db7ff0ef          	jal	ra,12e98 <eshdn1>
   130e6:	fd240fe3          	beq	s0,s2,130c4 <enormlz+0x9c>
   130ea:	0044d783          	lhu	a5,4(s1)
   130ee:	8526                	mv	a0,s1
   130f0:	fbe5                	bnez	a5,130e0 <enormlz+0xb8>
   130f2:	60e2                	ld	ra,24(sp)
   130f4:	8522                	mv	a0,s0
   130f6:	6442                	ld	s0,16(sp)
   130f8:	64a2                	ld	s1,8(sp)
   130fa:	6902                	ld	s2,0(sp)
   130fc:	6105                	addi	sp,sp,32
   130fe:	8082                	ret
   13100:	00450693          	addi	a3,a0,4
   13104:	01a50593          	addi	a1,a0,26
   13108:	4701                	li	a4,0
   1310a:	a019                	j	13110 <enormlz+0xe8>
   1310c:	0006d783          	lhu	a5,0(a3)
   13110:	0087d61b          	srliw	a2,a5,0x8
   13114:	8f51                	or	a4,a4,a2
   13116:	0087979b          	slliw	a5,a5,0x8
   1311a:	00e69023          	sh	a4,0(a3)
   1311e:	03079713          	slli	a4,a5,0x30
   13122:	0689                	addi	a3,a3,2
   13124:	9341                	srli	a4,a4,0x30
   13126:	fed593e3          	bne	a1,a3,1310c <enormlz+0xe4>
   1312a:	0044d783          	lhu	a5,4(s1)
   1312e:	5461                	li	s0,-8
   13130:	b76d                	j	130da <enormlz+0xb2>

0000000000013132 <eshift.part.0>:
   13132:	7179                	addi	sp,sp,-48
   13134:	f022                	sd	s0,32(sp)
   13136:	ec26                	sd	s1,24(sp)
   13138:	f406                	sd	ra,40(sp)
   1313a:	e84a                	sd	s2,16(sp)
   1313c:	e44e                	sd	s3,8(sp)
   1313e:	84ae                	mv	s1,a1
   13140:	842a                	mv	s0,a0
   13142:	0605cb63          	bltz	a1,131b8 <eshift.part.0+0x86>
   13146:	47bd                	li	a5,15
   13148:	862e                	mv	a2,a1
   1314a:	0511                	addi	a0,a0,4
   1314c:	01840693          	addi	a3,s0,24
   13150:	45bd                	li	a1,15
   13152:	0297d063          	bge	a5,s1,13172 <eshift.part.0+0x40>
   13156:	87aa                	mv	a5,a0
   13158:	0027d703          	lhu	a4,2(a5)
   1315c:	0789                	addi	a5,a5,2
   1315e:	fee79f23          	sh	a4,-2(a5)
   13162:	fef69be3          	bne	a3,a5,13158 <eshift.part.0+0x26>
   13166:	00041c23          	sh	zero,24(s0)
   1316a:	3641                	addiw	a2,a2,-16
   1316c:	fec5c5e3          	blt	a1,a2,13156 <eshift.part.0+0x24>
   13170:	88bd                	andi	s1,s1,15
   13172:	479d                	li	a5,7
   13174:	0297d463          	bge	a5,s1,1319c <eshift.part.0+0x6a>
   13178:	01840713          	addi	a4,s0,24
   1317c:	00240593          	addi	a1,s0,2
   13180:	4781                	li	a5,0
   13182:	00075683          	lhu	a3,0(a4)
   13186:	1779                	addi	a4,a4,-2
   13188:	0086961b          	slliw	a2,a3,0x8
   1318c:	8fd1                	or	a5,a5,a2
   1318e:	00f71123          	sh	a5,2(a4)
   13192:	0086d793          	srli	a5,a3,0x8
   13196:	fee596e3          	bne	a1,a4,13182 <eshift.part.0+0x50>
   1319a:	34e1                	addiw	s1,s1,-8
   1319c:	c491                	beqz	s1,131a8 <eshift.part.0+0x76>
   1319e:	34fd                	addiw	s1,s1,-1
   131a0:	8522                	mv	a0,s0
   131a2:	d43ff0ef          	jal	ra,12ee4 <eshup1>
   131a6:	fce5                	bnez	s1,1319e <eshift.part.0+0x6c>
   131a8:	70a2                	ld	ra,40(sp)
   131aa:	7402                	ld	s0,32(sp)
   131ac:	64e2                	ld	s1,24(sp)
   131ae:	6942                	ld	s2,16(sp)
   131b0:	69a2                	ld	s3,8(sp)
   131b2:	4501                	li	a0,0
   131b4:	6145                	addi	sp,sp,48
   131b6:	8082                	ret
   131b8:	57c5                	li	a5,-15
   131ba:	40b0093b          	negw	s2,a1
   131be:	06f5db63          	bge	a1,a5,13234 <eshift.part.0+0x102>
   131c2:	01850593          	addi	a1,a0,24
   131c6:	4981                	li	s3,0
   131c8:	00450693          	addi	a3,a0,4
   131cc:	463d                	li	a2,15
   131ce:	01845703          	lhu	a4,24(s0)
   131d2:	87ae                	mv	a5,a1
   131d4:	00e9e9b3          	or	s3,s3,a4
   131d8:	ffe7d703          	lhu	a4,-2(a5)
   131dc:	17f9                	addi	a5,a5,-2
   131de:	00e79123          	sh	a4,2(a5)
   131e2:	fed79be3          	bne	a5,a3,131d8 <eshift.part.0+0xa6>
   131e6:	00041223          	sh	zero,4(s0)
   131ea:	3941                	addiw	s2,s2,-16
   131ec:	ff2641e3          	blt	a2,s2,131ce <eshift.part.0+0x9c>
   131f0:	5941                	li	s2,-16
   131f2:	5745                	li	a4,-15
   131f4:	4099093b          	subw	s2,s2,s1
   131f8:	4781                	li	a5,0
   131fa:	06e4cb63          	blt	s1,a4,13270 <eshift.part.0+0x13e>
   131fe:	00f9093b          	addw	s2,s2,a5
   13202:	479d                	li	a5,7
   13204:	0327ce63          	blt	a5,s2,13240 <eshift.part.0+0x10e>
   13208:	00090d63          	beqz	s2,13222 <eshift.part.0+0xf0>
   1320c:	01845783          	lhu	a5,24(s0)
   13210:	397d                	addiw	s2,s2,-1
   13212:	8522                	mv	a0,s0
   13214:	8b85                	andi	a5,a5,1
   13216:	00f9e9b3          	or	s3,s3,a5
   1321a:	c7fff0ef          	jal	ra,12e98 <eshdn1>
   1321e:	fe0917e3          	bnez	s2,1320c <eshift.part.0+0xda>
   13222:	70a2                	ld	ra,40(sp)
   13224:	7402                	ld	s0,32(sp)
   13226:	64e2                	ld	s1,24(sp)
   13228:	6942                	ld	s2,16(sp)
   1322a:	01303533          	snez	a0,s3
   1322e:	69a2                	ld	s3,8(sp)
   13230:	6145                	addi	sp,sp,48
   13232:	8082                	ret
   13234:	57e5                	li	a5,-7
   13236:	4981                	li	s3,0
   13238:	00450693          	addi	a3,a0,4
   1323c:	fcf5d8e3          	bge	a1,a5,1320c <eshift.part.0+0xda>
   13240:	01844783          	lbu	a5,24(s0)
   13244:	01a40593          	addi	a1,s0,26
   13248:	00f9e9b3          	or	s3,s3,a5
   1324c:	4781                	li	a5,0
   1324e:	0006d703          	lhu	a4,0(a3)
   13252:	0689                	addi	a3,a3,2
   13254:	0087561b          	srliw	a2,a4,0x8
   13258:	8fd1                	or	a5,a5,a2
   1325a:	0087171b          	slliw	a4,a4,0x8
   1325e:	fef69f23          	sh	a5,-2(a3)
   13262:	03071793          	slli	a5,a4,0x30
   13266:	93c1                	srli	a5,a5,0x30
   13268:	feb693e3          	bne	a3,a1,1324e <eshift.part.0+0x11c>
   1326c:	3961                	addiw	s2,s2,-8
   1326e:	bf69                	j	13208 <eshift.part.0+0xd6>
   13270:	ff097793          	andi	a5,s2,-16
   13274:	40f007bb          	negw	a5,a5
   13278:	00f9093b          	addw	s2,s2,a5
   1327c:	479d                	li	a5,7
   1327e:	f927d5e3          	bge	a5,s2,13208 <eshift.part.0+0xd6>
   13282:	bf7d                	j	13240 <eshift.part.0+0x10e>

0000000000013284 <emovi>:
   13284:	01255783          	lhu	a5,18(a0)
   13288:	6621                	lui	a2,0x8
   1328a:	167d                	addi	a2,a2,-1
   1328c:	00f7d79b          	srliw	a5,a5,0xf
   13290:	40f007bb          	negw	a5,a5
   13294:	00f59023          	sh	a5,0(a1)
   13298:	01255683          	lhu	a3,18(a0)
   1329c:	01050793          	addi	a5,a0,16
   132a0:	00458713          	addi	a4,a1,4
   132a4:	8ef1                	and	a3,a3,a2
   132a6:	00d59123          	sh	a3,2(a1)
   132aa:	0006881b          	sext.w	a6,a3
   132ae:	02c68263          	beq	a3,a2,132d2 <emovi+0x4e>
   132b2:	00658713          	addi	a4,a1,6
   132b6:	00059223          	sh	zero,4(a1)
   132ba:	1579                	addi	a0,a0,-2
   132bc:	0007d683          	lhu	a3,0(a5)
   132c0:	17f9                	addi	a5,a5,-2
   132c2:	0709                	addi	a4,a4,2
   132c4:	fed71f23          	sh	a3,-2(a4)
   132c8:	fef51ae3          	bne	a0,a5,132bc <emovi+0x38>
   132cc:	00059c23          	sh	zero,24(a1)
   132d0:	8082                	ret
   132d2:	01255683          	lhu	a3,18(a0)
   132d6:	0106f6b3          	and	a3,a3,a6
   132da:	01069b63          	bne	a3,a6,132f0 <emovi+0x6c>
   132de:	01250813          	addi	a6,a0,18
   132e2:	86aa                	mv	a3,a0
   132e4:	0006d603          	lhu	a2,0(a3)
   132e8:	0689                	addi	a3,a3,2
   132ea:	ea11                	bnez	a2,132fe <emovi+0x7a>
   132ec:	ff069ce3          	bne	a3,a6,132e4 <emovi+0x60>
   132f0:	05e9                	addi	a1,a1,26
   132f2:	0709                	addi	a4,a4,2
   132f4:	fe071f23          	sh	zero,-2(a4)
   132f8:	fee59de3          	bne	a1,a4,132f2 <emovi+0x6e>
   132fc:	8082                	ret
   132fe:	00658713          	addi	a4,a1,6
   13302:	00059223          	sh	zero,4(a1)
   13306:	1571                	addi	a0,a0,-4
   13308:	0007d683          	lhu	a3,0(a5)
   1330c:	17f9                	addi	a5,a5,-2
   1330e:	0709                	addi	a4,a4,2
   13310:	fed71f23          	sh	a3,-2(a4)
   13314:	fea79ae3          	bne	a5,a0,13308 <emovi+0x84>
   13318:	8082                	ret

000000000001331a <ecmp>:
   1331a:	01255783          	lhu	a5,18(a0)
   1331e:	715d                	addi	sp,sp,-80
   13320:	e0a2                	sd	s0,64(sp)
   13322:	fff7c793          	not	a5,a5
   13326:	e486                	sd	ra,72(sp)
   13328:	03179713          	slli	a4,a5,0x31
   1332c:	842e                	mv	s0,a1
   1332e:	eb11                	bnez	a4,13342 <ecmp+0x28>
   13330:	01250693          	addi	a3,a0,18
   13334:	87aa                	mv	a5,a0
   13336:	0007d703          	lhu	a4,0(a5)
   1333a:	0789                	addi	a5,a5,2
   1333c:	eb25                	bnez	a4,133ac <ecmp+0x92>
   1333e:	fed79ce3          	bne	a5,a3,13336 <ecmp+0x1c>
   13342:	01245783          	lhu	a5,18(s0)
   13346:	fff7c793          	not	a5,a5
   1334a:	03179713          	slli	a4,a5,0x31
   1334e:	c331                	beqz	a4,13392 <ecmp+0x78>
   13350:	858a                	mv	a1,sp
   13352:	f33ff0ef          	jal	ra,13284 <emovi>
   13356:	100c                	addi	a1,sp,32
   13358:	8522                	mv	a0,s0
   1335a:	f2bff0ef          	jal	ra,13284 <emovi>
   1335e:	00015583          	lhu	a1,0(sp)
   13362:	02015783          	lhu	a5,32(sp)
   13366:	04b78863          	beq	a5,a1,133b6 <ecmp+0x9c>
   1336a:	00210793          	addi	a5,sp,2
   1336e:	02210713          	addi	a4,sp,34
   13372:	0830                	addi	a2,sp,24
   13374:	0007d683          	lhu	a3,0(a5)
   13378:	0789                	addi	a5,a5,2
   1337a:	eea5                	bnez	a3,133f2 <ecmp+0xd8>
   1337c:	00075683          	lhu	a3,0(a4)
   13380:	0709                	addi	a4,a4,2
   13382:	eaa5                	bnez	a3,133f2 <ecmp+0xd8>
   13384:	fef618e3          	bne	a2,a5,13374 <ecmp+0x5a>
   13388:	4501                	li	a0,0
   1338a:	60a6                	ld	ra,72(sp)
   1338c:	6406                	ld	s0,64(sp)
   1338e:	6161                	addi	sp,sp,80
   13390:	8082                	ret
   13392:	87a2                	mv	a5,s0
   13394:	0007d703          	lhu	a4,0(a5)
   13398:	01240693          	addi	a3,s0,18
   1339c:	0789                	addi	a5,a5,2
   1339e:	e719                	bnez	a4,133ac <ecmp+0x92>
   133a0:	fad788e3          	beq	a5,a3,13350 <ecmp+0x36>
   133a4:	0007d703          	lhu	a4,0(a5)
   133a8:	0789                	addi	a5,a5,2
   133aa:	db7d                	beqz	a4,133a0 <ecmp+0x86>
   133ac:	60a6                	ld	ra,72(sp)
   133ae:	6406                	ld	s0,64(sp)
   133b0:	5579                	li	a0,-2
   133b2:	6161                	addi	sp,sp,80
   133b4:	8082                	ret
   133b6:	4505                	li	a0,1
   133b8:	e1a9                	bnez	a1,133fa <ecmp+0xe0>
   133ba:	00215603          	lhu	a2,2(sp)
   133be:	02215683          	lhu	a3,34(sp)
   133c2:	00210713          	addi	a4,sp,2
   133c6:	02210793          	addi	a5,sp,34
   133ca:	182c                	addi	a1,sp,56
   133cc:	0789                	addi	a5,a5,2
   133ce:	0709                	addi	a4,a4,2
   133d0:	00d61c63          	bne	a2,a3,133e8 <ecmp+0xce>
   133d4:	fab78ae3          	beq	a5,a1,13388 <ecmp+0x6e>
   133d8:	00075603          	lhu	a2,0(a4)
   133dc:	0007d683          	lhu	a3,0(a5)
   133e0:	0709                	addi	a4,a4,2
   133e2:	0789                	addi	a5,a5,2
   133e4:	fed608e3          	beq	a2,a3,133d4 <ecmp+0xba>
   133e8:	fac6e1e3          	bltu	a3,a2,1338a <ecmp+0x70>
   133ec:	40a0053b          	negw	a0,a0
   133f0:	bf69                	j	1338a <ecmp+0x70>
   133f2:	4505                	li	a0,1
   133f4:	d9d9                	beqz	a1,1338a <ecmp+0x70>
   133f6:	557d                	li	a0,-1
   133f8:	bf49                	j	1338a <ecmp+0x70>
   133fa:	557d                	li	a0,-1
   133fc:	bf7d                	j	133ba <ecmp+0xa0>

00000000000133fe <emdnorm>:
   133fe:	715d                	addi	sp,sp,-80
   13400:	e0a2                	sd	s0,64(sp)
   13402:	fc26                	sd	s1,56(sp)
   13404:	f84a                	sd	s2,48(sp)
   13406:	f44e                	sd	s3,40(sp)
   13408:	f052                	sd	s4,32(sp)
   1340a:	ec56                	sd	s5,24(sp)
   1340c:	8936                	mv	s2,a3
   1340e:	84be                	mv	s1,a5
   13410:	e486                	sd	ra,72(sp)
   13412:	e85a                	sd	s6,16(sp)
   13414:	e45e                	sd	s7,8(sp)
   13416:	842a                	mv	s0,a0
   13418:	89ae                	mv	s3,a1
   1341a:	8a32                	mv	s4,a2
   1341c:	8aba                	mv	s5,a4
   1341e:	c0bff0ef          	jal	ra,13028 <enormlz>
   13422:	09000793          	li	a5,144
   13426:	40a90933          	sub	s2,s2,a0
   1342a:	10a7dc63          	bge	a5,a0,13542 <emdnorm+0x144>
   1342e:	67a1                	lui	a5,0x8
   13430:	17f9                	addi	a5,a5,-2
   13432:	1f27dd63          	bge	a5,s2,1362c <emdnorm+0x22e>
   13436:	1c0a8b63          	beqz	s5,1360c <emdnorm+0x20e>
   1343a:	0044aa83          	lw	s5,4(s1)
   1343e:	4094                	lw	a3,0(s1)
   13440:	01a48713          	addi	a4,s1,26
   13444:	03448793          	addi	a5,s1,52
   13448:	23568463          	beq	a3,s5,13670 <emdnorm+0x272>
   1344c:	0709                	addi	a4,a4,2
   1344e:	fe071f23          	sh	zero,-2(a4)
   13452:	fef71de3          	bne	a4,a5,1344c <emdnorm+0x4e>
   13456:	03800793          	li	a5,56
   1345a:	28fa8363          	beq	s5,a5,136e0 <emdnorm+0x2e2>
   1345e:	1157d163          	bge	a5,s5,13560 <emdnorm+0x162>
   13462:	04000793          	li	a5,64
   13466:	22fa8b63          	beq	s5,a5,1369c <emdnorm+0x29e>
   1346a:	07100793          	li	a5,113
   1346e:	28fa9363          	bne	s5,a5,136f4 <emdnorm+0x2f6>
   13472:	6721                	lui	a4,0x8
   13474:	177d                	addi	a4,a4,-1
   13476:	6591                	lui	a1,0x4
   13478:	4b51                	li	s6,20
   1347a:	4ba9                	li	s7,10
   1347c:	67a1                	lui	a5,0x8
   1347e:	4629                	li	a2,10
   13480:	00860693          	addi	a3,a2,8 # 8008 <register_fini-0x80a8>
   13484:	0686                	slli	a3,a3,0x1
   13486:	00e49a23          	sh	a4,20(s1)
   1348a:	0174a423          	sw	s7,8(s1)
   1348e:	00b49b23          	sh	a1,22(s1)
   13492:	00f49c23          	sh	a5,24(s1)
   13496:	c4d0                	sw	a2,12(s1)
   13498:	00d48733          	add	a4,s1,a3
   1349c:	00f71523          	sh	a5,10(a4) # 800a <register_fini-0x80a6>
   134a0:	0154a023          	sw	s5,0(s1)
   134a4:	9b22                	add	s6,s6,s0
   134a6:	1d205c63          	blez	s2,1367e <emdnorm+0x280>
   134aa:	000b5703          	lhu	a4,0(s6) # ffffffff80000000 <__BSS_END__+0xffffffff7ffe09f0>
   134ae:	0144d683          	lhu	a3,20(s1)
   134b2:	08f00793          	li	a5,143
   134b6:	00d77633          	and	a2,a4,a3
   134ba:	0557c163          	blt	a5,s5,134fc <emdnorm+0xfe>
   134be:	001b879b          	addiw	a5,s7,1
   134c2:	45b1                	li	a1,12
   134c4:	02f5cc63          	blt	a1,a5,134fc <emdnorm+0xfe>
   134c8:	472d                	li	a4,11
   134ca:	4177073b          	subw	a4,a4,s7
   134ce:	1702                	slli	a4,a4,0x20
   134d0:	9301                	srli	a4,a4,0x20
   134d2:	975e                	add	a4,a4,s7
   134d4:	0786                	slli	a5,a5,0x1
   134d6:	0706                	slli	a4,a4,0x1
   134d8:	00440693          	addi	a3,s0,4
   134dc:	97a2                	add	a5,a5,s0
   134de:	9736                	add	a4,a4,a3
   134e0:	0007d683          	lhu	a3,0(a5) # 8000 <register_fini-0x80b0>
   134e4:	c299                	beqz	a3,134ea <emdnorm+0xec>
   134e6:	00166613          	ori	a2,a2,1
   134ea:	00079023          	sh	zero,0(a5)
   134ee:	0789                	addi	a5,a5,2
   134f0:	fee798e3          	bne	a5,a4,134e0 <emdnorm+0xe2>
   134f4:	000b5703          	lhu	a4,0(s6)
   134f8:	0144d683          	lhu	a3,20(s1)
   134fc:	fff6c693          	not	a3,a3
   13500:	8f75                	and	a4,a4,a3
   13502:	00eb1023          	sh	a4,0(s6)
   13506:	0164d783          	lhu	a5,22(s1)
   1350a:	00c7f733          	and	a4,a5,a2
   1350e:	eb51                	bnez	a4,135a2 <emdnorm+0x1a4>
   13510:	0d205d63          	blez	s2,135ea <emdnorm+0x1ec>
   13514:	00445783          	lhu	a5,4(s0)
   13518:	1a079463          	bnez	a5,136c0 <emdnorm+0x2c2>
   1351c:	67a1                	lui	a5,0x8
   1351e:	00041c23          	sh	zero,24(s0)
   13522:	17f9                	addi	a5,a5,-2
   13524:	0f27c663          	blt	a5,s2,13610 <emdnorm+0x212>
   13528:	01241123          	sh	s2,2(s0)
   1352c:	60a6                	ld	ra,72(sp)
   1352e:	6406                	ld	s0,64(sp)
   13530:	74e2                	ld	s1,56(sp)
   13532:	7942                	ld	s2,48(sp)
   13534:	79a2                	ld	s3,40(sp)
   13536:	7a02                	ld	s4,32(sp)
   13538:	6ae2                	ld	s5,24(sp)
   1353a:	6b42                	ld	s6,16(sp)
   1353c:	6ba2                	ld	s7,8(sp)
   1353e:	6161                	addi	sp,sp,80
   13540:	8082                	ret
   13542:	10095c63          	bgez	s2,1365a <emdnorm+0x25c>
   13546:	f7000793          	li	a5,-144
   1354a:	0ef95a63          	bge	s2,a5,1363e <emdnorm+0x240>
   1354e:	00240793          	addi	a5,s0,2
   13552:	0469                	addi	s0,s0,26
   13554:	0789                	addi	a5,a5,2
   13556:	fe079f23          	sh	zero,-2(a5) # 7ffe <register_fini-0x80b2>
   1355a:	fe879de3          	bne	a5,s0,13554 <emdnorm+0x156>
   1355e:	b7f9                	j	1352c <emdnorm+0x12e>
   13560:	47e1                	li	a5,24
   13562:	14fa8563          	beq	s5,a5,136ac <emdnorm+0x2ae>
   13566:	03500793          	li	a5,53
   1356a:	18fa9563          	bne	s5,a5,136f4 <emdnorm+0x2f6>
   1356e:	6785                	lui	a5,0x1
   13570:	7ff00713          	li	a4,2047
   13574:	40000593          	li	a1,1024
   13578:	4b31                	li	s6,12
   1357a:	4b99                	li	s7,6
   1357c:	80078793          	addi	a5,a5,-2048 # 800 <register_fini-0xf8b0>
   13580:	4619                	li	a2,6
   13582:	bdfd                	j	13480 <emdnorm+0x82>
   13584:	0144d703          	lhu	a4,20(s1)
   13588:	000b5603          	lhu	a2,0(s6)
   1358c:	fff74793          	not	a5,a4
   13590:	8ff1                	and	a5,a5,a2
   13592:	00fb1023          	sh	a5,0(s6)
   13596:	0164d783          	lhu	a5,22(s1)
   1359a:	8e79                	and	a2,a2,a4
   1359c:	00c7f733          	and	a4,a5,a2
   135a0:	cf21                	beqz	a4,135f8 <emdnorm+0x1fa>
   135a2:	00c79d63          	bne	a5,a2,135bc <emdnorm+0x1be>
   135a6:	12099a63          	bnez	s3,136da <emdnorm+0x2dc>
   135aa:	44dc                	lw	a5,12(s1)
   135ac:	0184d703          	lhu	a4,24(s1)
   135b0:	0786                	slli	a5,a5,0x1
   135b2:	97a2                	add	a5,a5,s0
   135b4:	0007d783          	lhu	a5,0(a5)
   135b8:	8ff9                	and	a5,a5,a4
   135ba:	dbb9                	beqz	a5,13510 <emdnorm+0x112>
   135bc:	03248613          	addi	a2,s1,50
   135c0:	01840693          	addi	a3,s0,24
   135c4:	04f1                	addi	s1,s1,28
   135c6:	4781                	li	a5,0
   135c8:	00065703          	lhu	a4,0(a2)
   135cc:	0006d583          	lhu	a1,0(a3)
   135d0:	16f9                	addi	a3,a3,-2
   135d2:	1679                	addi	a2,a2,-2
   135d4:	972e                	add	a4,a4,a1
   135d6:	973e                	add	a4,a4,a5
   135d8:	01075793          	srli	a5,a4,0x10
   135dc:	00e69123          	sh	a4,2(a3)
   135e0:	8b85                	andi	a5,a5,1
   135e2:	fec493e3          	bne	s1,a2,135c8 <emdnorm+0x1ca>
   135e6:	f32047e3          	bgtz	s2,13514 <emdnorm+0x116>
   135ea:	09000793          	li	a5,144
   135ee:	00fa8563          	beq	s5,a5,135f8 <emdnorm+0x1fa>
   135f2:	8522                	mv	a0,s0
   135f4:	8f1ff0ef          	jal	ra,12ee4 <eshup1>
   135f8:	00445783          	lhu	a5,4(s0)
   135fc:	e3f1                	bnez	a5,136c0 <emdnorm+0x2c2>
   135fe:	00041c23          	sh	zero,24(s0)
   13602:	f20953e3          	bgez	s2,13528 <emdnorm+0x12a>
   13606:	00041123          	sh	zero,2(s0)
   1360a:	b70d                	j	1352c <emdnorm+0x12e>
   1360c:	00041c23          	sh	zero,24(s0)
   13610:	77e1                	lui	a5,0xffff8
   13612:	fff7c793          	not	a5,a5
   13616:	00f41123          	sh	a5,2(s0)
   1361a:	00440793          	addi	a5,s0,4
   1361e:	0461                	addi	s0,s0,24
   13620:	00079023          	sh	zero,0(a5) # ffffffffffff8000 <__BSS_END__+0xfffffffffffd89f0>
   13624:	0789                	addi	a5,a5,2
   13626:	fe879de3          	bne	a5,s0,13620 <emdnorm+0x222>
   1362a:	b709                	j	1352c <emdnorm+0x12e>
   1362c:	00240793          	addi	a5,s0,2
   13630:	0469                	addi	s0,s0,26
   13632:	0789                	addi	a5,a5,2
   13634:	fe079f23          	sh	zero,-2(a5)
   13638:	fef41de3          	bne	s0,a5,13632 <emdnorm+0x234>
   1363c:	bdc5                	j	1352c <emdnorm+0x12e>
   1363e:	0009059b          	sext.w	a1,s2
   13642:	8522                	mv	a0,s0
   13644:	aefff0ef          	jal	ra,13132 <eshift.part.0>
   13648:	c111                	beqz	a0,1364c <emdnorm+0x24e>
   1364a:	4985                	li	s3,1
   1364c:	de0a97e3          	bnez	s5,1343a <emdnorm+0x3c>
   13650:	00041c23          	sh	zero,24(s0)
   13654:	00041123          	sh	zero,2(s0)
   13658:	bdd1                	j	1352c <emdnorm+0x12e>
   1365a:	ec0a81e3          	beqz	s5,1351c <emdnorm+0x11e>
   1365e:	0044aa83          	lw	s5,4(s1)
   13662:	4094                	lw	a3,0(s1)
   13664:	01a48713          	addi	a4,s1,26
   13668:	03448793          	addi	a5,s1,52
   1366c:	df5690e3          	bne	a3,s5,1344c <emdnorm+0x4e>
   13670:	0084ab83          	lw	s7,8(s1)
   13674:	001b9b13          	slli	s6,s7,0x1
   13678:	9b22                	add	s6,s6,s0
   1367a:	e32048e3          	bgtz	s2,134aa <emdnorm+0xac>
   1367e:	09000793          	li	a5,144
   13682:	f0fa81e3          	beq	s5,a5,13584 <emdnorm+0x186>
   13686:	01845783          	lhu	a5,24(s0)
   1368a:	8522                	mv	a0,s0
   1368c:	8b85                	andi	a5,a5,1
   1368e:	00f9e7b3          	or	a5,s3,a5
   13692:	0007899b          	sext.w	s3,a5
   13696:	803ff0ef          	jal	ra,12e98 <eshdn1>
   1369a:	bd01                	j	134aa <emdnorm+0xac>
   1369c:	6741                	lui	a4,0x10
   1369e:	177d                	addi	a4,a4,-1
   136a0:	65a1                	lui	a1,0x8
   136a2:	4b39                	li	s6,14
   136a4:	4b9d                	li	s7,7
   136a6:	4785                	li	a5,1
   136a8:	4619                	li	a2,6
   136aa:	bbd9                	j	13480 <emdnorm+0x82>
   136ac:	0ff00713          	li	a4,255
   136b0:	08000593          	li	a1,128
   136b4:	4b21                	li	s6,8
   136b6:	4b91                	li	s7,4
   136b8:	10000793          	li	a5,256
   136bc:	4611                	li	a2,4
   136be:	b3c9                	j	13480 <emdnorm+0x82>
   136c0:	8522                	mv	a0,s0
   136c2:	fd6ff0ef          	jal	ra,12e98 <eshdn1>
   136c6:	67a1                	lui	a5,0x8
   136c8:	0905                	addi	s2,s2,1
   136ca:	00041c23          	sh	zero,24(s0)
   136ce:	17f9                	addi	a5,a5,-2
   136d0:	f527c0e3          	blt	a5,s2,13610 <emdnorm+0x212>
   136d4:	f20949e3          	bltz	s2,13606 <emdnorm+0x208>
   136d8:	bd81                	j	13528 <emdnorm+0x12a>
   136da:	ee0a01e3          	beqz	s4,135bc <emdnorm+0x1be>
   136de:	bd0d                	j	13510 <emdnorm+0x112>
   136e0:	0ff00713          	li	a4,255
   136e4:	08000593          	li	a1,128
   136e8:	4b31                	li	s6,12
   136ea:	4b99                	li	s7,6
   136ec:	10000793          	li	a5,256
   136f0:	4619                	li	a2,6
   136f2:	b379                	j	13480 <emdnorm+0x82>
   136f4:	6741                	lui	a4,0x10
   136f6:	177d                	addi	a4,a4,-1
   136f8:	65a1                	lui	a1,0x8
   136fa:	4b61                	li	s6,24
   136fc:	4bb1                	li	s7,12
   136fe:	4785                	li	a5,1
   13700:	462d                	li	a2,11
   13702:	bbbd                	j	13480 <emdnorm+0x82>

0000000000013704 <eiremain>:
   13704:	711d                	addi	sp,sp,-96
   13706:	e0ca                	sd	s2,64(sp)
   13708:	fc4e                	sd	s3,56(sp)
   1370a:	892e                	mv	s2,a1
   1370c:	00255983          	lhu	s3,2(a0)
   13710:	ec86                	sd	ra,88(sp)
   13712:	e8a2                	sd	s0,80(sp)
   13714:	e4a6                	sd	s1,72(sp)
   13716:	f852                	sd	s4,48(sp)
   13718:	84b2                	mv	s1,a2
   1371a:	ec5e                	sd	s7,24(sp)
   1371c:	f456                	sd	s5,40(sp)
   1371e:	f05a                	sd	s6,32(sp)
   13720:	e862                	sd	s8,16(sp)
   13722:	e466                	sd	s9,8(sp)
   13724:	e06a                	sd	s10,0(sp)
   13726:	8baa                	mv	s7,a0
   13728:	901ff0ef          	jal	ra,13028 <enormlz>
   1372c:	00295403          	lhu	s0,2(s2)
   13730:	87aa                	mv	a5,a0
   13732:	854a                	mv	a0,s2
   13734:	40f989b3          	sub	s3,s3,a5
   13738:	03448a13          	addi	s4,s1,52
   1373c:	8edff0ef          	jal	ra,13028 <enormlz>
   13740:	8c09                	sub	s0,s0,a0
   13742:	04e48713          	addi	a4,s1,78
   13746:	87d2                	mv	a5,s4
   13748:	0789                	addi	a5,a5,2
   1374a:	fe079f23          	sh	zero,-2(a5) # 7ffe <register_fini-0x80b2>
   1374e:	fee79de3          	bne	a5,a4,13748 <eiremain+0x44>
   13752:	07344a63          	blt	s0,s3,137c6 <eiremain+0xc2>
   13756:	004b8b13          	addi	s6,s7,4
   1375a:	00490a93          	addi	s5,s2,4
   1375e:	01ab8c13          	addi	s8,s7,26
   13762:	00290d13          	addi	s10,s2,2
   13766:	8756                	mv	a4,s5
   13768:	87da                	mv	a5,s6
   1376a:	0007d603          	lhu	a2,0(a5)
   1376e:	00075683          	lhu	a3,0(a4) # 10000 <register_fini-0xb0>
   13772:	0789                	addi	a5,a5,2
   13774:	0709                	addi	a4,a4,2
   13776:	06d61c63          	bne	a2,a3,137ee <eiremain+0xea>
   1377a:	ff8798e3          	bne	a5,s8,1376a <eiremain+0x66>
   1377e:	018b8613          	addi	a2,s7,24
   13782:	01890713          	addi	a4,s2,24
   13786:	4681                	li	a3,0
   13788:	00075783          	lhu	a5,0(a4)
   1378c:	00065583          	lhu	a1,0(a2)
   13790:	1779                	addi	a4,a4,-2
   13792:	8f95                	sub	a5,a5,a3
   13794:	8f8d                	sub	a5,a5,a1
   13796:	0107d693          	srli	a3,a5,0x10
   1379a:	00f71123          	sh	a5,2(a4)
   1379e:	8a85                	andi	a3,a3,1
   137a0:	1679                	addi	a2,a2,-2
   137a2:	feed13e3          	bne	s10,a4,13788 <eiremain+0x84>
   137a6:	4c85                	li	s9,1
   137a8:	8552                	mv	a0,s4
   137aa:	f3aff0ef          	jal	ra,12ee4 <eshup1>
   137ae:	04c4d783          	lhu	a5,76(s1)
   137b2:	147d                	addi	s0,s0,-1
   137b4:	854a                	mv	a0,s2
   137b6:	00fce7b3          	or	a5,s9,a5
   137ba:	04f49623          	sh	a5,76(s1)
   137be:	f26ff0ef          	jal	ra,12ee4 <eshup1>
   137c2:	fb3452e3          	bge	s0,s3,13766 <eiremain+0x62>
   137c6:	86a2                	mv	a3,s0
   137c8:	6446                	ld	s0,80(sp)
   137ca:	60e6                	ld	ra,88(sp)
   137cc:	79e2                	ld	s3,56(sp)
   137ce:	7a42                	ld	s4,48(sp)
   137d0:	7aa2                	ld	s5,40(sp)
   137d2:	7b02                	ld	s6,32(sp)
   137d4:	6be2                	ld	s7,24(sp)
   137d6:	6c42                	ld	s8,16(sp)
   137d8:	6ca2                	ld	s9,8(sp)
   137da:	6d02                	ld	s10,0(sp)
   137dc:	87a6                	mv	a5,s1
   137de:	854a                	mv	a0,s2
   137e0:	64a6                	ld	s1,72(sp)
   137e2:	6906                	ld	s2,64(sp)
   137e4:	4701                	li	a4,0
   137e6:	4601                	li	a2,0
   137e8:	4581                	li	a1,0
   137ea:	6125                	addi	sp,sp,96
   137ec:	b909                	j	133fe <emdnorm>
   137ee:	4c81                	li	s9,0
   137f0:	fac6ece3          	bltu	a3,a2,137a8 <eiremain+0xa4>
   137f4:	b769                	j	1377e <eiremain+0x7a>

00000000000137f6 <e113toe.isra.0>:
   137f6:	7179                	addi	sp,sp,-48
   137f8:	f022                	sd	s0,32(sp)
   137fa:	f406                	sd	ra,40(sp)
   137fc:	842e                	mv	s0,a1
   137fe:	878a                	mv	a5,sp
   13800:	01a10713          	addi	a4,sp,26
   13804:	0789                	addi	a5,a5,2
   13806:	fe079f23          	sh	zero,-2(a5)
   1380a:	fee79de3          	bne	a5,a4,13804 <e113toe.isra.0+0xe>
   1380e:	00e55783          	lhu	a5,14(a0)
   13812:	6721                	lui	a4,0x8
   13814:	177d                	addi	a4,a4,-1
   13816:	03079693          	slli	a3,a5,0x30
   1381a:	96fd                	srai	a3,a3,0x3f
   1381c:	00d11023          	sh	a3,0(sp)
   13820:	00e7f6b3          	and	a3,a5,a4
   13824:	8636                	mv	a2,a3
   13826:	04e68363          	beq	a3,a4,1386c <e113toe.isra.0+0x76>
   1382a:	00e50793          	addi	a5,a0,14
   1382e:	00d11123          	sh	a3,2(sp)
   13832:	00610713          	addi	a4,sp,6
   13836:	ffe7d683          	lhu	a3,-2(a5)
   1383a:	17f9                	addi	a5,a5,-2
   1383c:	0709                	addi	a4,a4,2
   1383e:	fed71f23          	sh	a3,-2(a4) # 7ffe <register_fini-0x80b2>
   13842:	fef51ae3          	bne	a0,a5,13836 <e113toe.isra.0+0x40>
   13846:	ea19                	bnez	a2,1385c <e113toe.isra.0+0x66>
   13848:	00011223          	sh	zero,4(sp)
   1384c:	85a2                	mv	a1,s0
   1384e:	850a                	mv	a0,sp
   13850:	f4cff0ef          	jal	ra,12f9c <emovo.constprop.0>
   13854:	70a2                	ld	ra,40(sp)
   13856:	7402                	ld	s0,32(sp)
   13858:	6145                	addi	sp,sp,48
   1385a:	8082                	ret
   1385c:	4785                	li	a5,1
   1385e:	55fd                	li	a1,-1
   13860:	850a                	mv	a0,sp
   13862:	00f11223          	sh	a5,4(sp)
   13866:	8cdff0ef          	jal	ra,13132 <eshift.part.0>
   1386a:	b7cd                	j	1384c <e113toe.isra.0+0x56>
   1386c:	87aa                	mv	a5,a0
   1386e:	00e50693          	addi	a3,a0,14
   13872:	0007d703          	lhu	a4,0(a5)
   13876:	0789                	addi	a5,a5,2
   13878:	ef21                	bnez	a4,138d0 <e113toe.isra.0+0xda>
   1387a:	fef69ce3          	bne	a3,a5,13872 <e113toe.isra.0+0x7c>
   1387e:	01440713          	addi	a4,s0,20
   13882:	87a2                	mv	a5,s0
   13884:	0789                	addi	a5,a5,2
   13886:	fe079f23          	sh	zero,-2(a5)
   1388a:	fee79de3          	bne	a5,a4,13884 <e113toe.isra.0+0x8e>
   1388e:	01240713          	addi	a4,s0,18
   13892:	87a2                	mv	a5,s0
   13894:	0789                	addi	a5,a5,2
   13896:	fe079f23          	sh	zero,-2(a5)
   1389a:	fef71de3          	bne	a4,a5,13894 <e113toe.isra.0+0x9e>
   1389e:	01245783          	lhu	a5,18(s0)
   138a2:	66a1                	lui	a3,0x8
   138a4:	16fd                	addi	a3,a3,-1
   138a6:	8fd5                	or	a5,a5,a3
   138a8:	17c2                	slli	a5,a5,0x30
   138aa:	93c1                	srli	a5,a5,0x30
   138ac:	00f41923          	sh	a5,18(s0)
   138b0:	00e51683          	lh	a3,14(a0)
   138b4:	fa06d0e3          	bgez	a3,13854 <e113toe.isra.0+0x5e>
   138b8:	86a2                	mv	a3,s0
   138ba:	0006d603          	lhu	a2,0(a3) # 8000 <register_fini-0x80b0>
   138be:	0689                	addi	a3,a3,2
   138c0:	fa51                	bnez	a2,13854 <e113toe.isra.0+0x5e>
   138c2:	fed71ce3          	bne	a4,a3,138ba <e113toe.isra.0+0xc4>
   138c6:	7761                	lui	a4,0xffff8
   138c8:	8fb9                	xor	a5,a5,a4
   138ca:	00f41923          	sh	a5,18(s0)
   138ce:	b759                	j	13854 <e113toe.isra.0+0x5e>
   138d0:	01040713          	addi	a4,s0,16
   138d4:	87a2                	mv	a5,s0
   138d6:	0789                	addi	a5,a5,2
   138d8:	fe079f23          	sh	zero,-2(a5)
   138dc:	fee79de3          	bne	a5,a4,138d6 <e113toe.isra.0+0xe0>
   138e0:	77f1                	lui	a5,0xffffc
   138e2:	00f41823          	sh	a5,16(s0)
   138e6:	77e1                	lui	a5,0xffff8
   138e8:	fff7c793          	not	a5,a5
   138ec:	00f41923          	sh	a5,18(s0)
   138f0:	b795                	j	13854 <e113toe.isra.0+0x5e>

00000000000138f2 <ediv>:
   138f2:	01255783          	lhu	a5,18(a0)
   138f6:	7115                	addi	sp,sp,-224
   138f8:	e9a2                	sd	s0,208(sp)
   138fa:	fff7c793          	not	a5,a5
   138fe:	e5a6                	sd	s1,200(sp)
   13900:	e1ca                	sd	s2,192(sp)
   13902:	fd4e                	sd	s3,184(sp)
   13904:	ed86                	sd	ra,216(sp)
   13906:	f952                	sd	s4,176(sp)
   13908:	f556                	sd	s5,168(sp)
   1390a:	f15a                	sd	s6,160(sp)
   1390c:	ed5e                	sd	s7,152(sp)
   1390e:	e962                	sd	s8,144(sp)
   13910:	e566                	sd	s9,136(sp)
   13912:	e16a                	sd	s10,128(sp)
   13914:	fcee                	sd	s11,120(sp)
   13916:	03179713          	slli	a4,a5,0x31
   1391a:	84aa                	mv	s1,a0
   1391c:	89ae                	mv	s3,a1
   1391e:	8432                	mv	s0,a2
   13920:	8936                	mv	s2,a3
   13922:	eb19                	bnez	a4,13938 <ediv+0x46>
   13924:	01250693          	addi	a3,a0,18
   13928:	87aa                	mv	a5,a0
   1392a:	0007d703          	lhu	a4,0(a5) # ffffffffffff8000 <__BSS_END__+0xfffffffffffd89f0>
   1392e:	0789                	addi	a5,a5,2
   13930:	22071a63          	bnez	a4,13b64 <ediv+0x272>
   13934:	fed79be3          	bne	a5,a3,1392a <ediv+0x38>
   13938:	0129d783          	lhu	a5,18(s3)
   1393c:	fff7c793          	not	a5,a5
   13940:	03179713          	slli	a4,a5,0x31
   13944:	eb19                	bnez	a4,1395a <ediv+0x68>
   13946:	01298693          	addi	a3,s3,18
   1394a:	87ce                	mv	a5,s3
   1394c:	0007d703          	lhu	a4,0(a5)
   13950:	0789                	addi	a5,a5,2
   13952:	22071463          	bnez	a4,13b7a <ediv+0x288>
   13956:	fed79be3          	bne	a5,a3,1394c <ediv+0x5a>
   1395a:	6a75                	lui	s4,0x1d
   1395c:	830a0593          	addi	a1,s4,-2000 # 1c830 <ezero>
   13960:	8526                	mv	a0,s1
   13962:	9b9ff0ef          	jal	ra,1331a <ecmp>
   13966:	22050563          	beqz	a0,13b90 <ediv+0x29e>
   1396a:	0124d603          	lhu	a2,18(s1)
   1396e:	0129d703          	lhu	a4,18(s3)
   13972:	67a1                	lui	a5,0x8
   13974:	17fd                	addi	a5,a5,-1
   13976:	00f67533          	and	a0,a2,a5
   1397a:	00f775b3          	and	a1,a4,a5
   1397e:	06f51a63          	bne	a0,a5,139f2 <ediv+0x100>
   13982:	01248813          	addi	a6,s1,18
   13986:	87a6                	mv	a5,s1
   13988:	0007d683          	lhu	a3,0(a5) # 8000 <register_fini-0x80b0>
   1398c:	0789                	addi	a5,a5,2
   1398e:	e2a5                	bnez	a3,139ee <ediv+0xfc>
   13990:	ff079ce3          	bne	a5,a6,13988 <ediv+0x96>
   13994:	67a1                	lui	a5,0x8
   13996:	17fd                	addi	a5,a5,-1
   13998:	20f59663          	bne	a1,a5,13ba4 <ediv+0x2b2>
   1399c:	01298693          	addi	a3,s3,18
   139a0:	87ce                	mv	a5,s3
   139a2:	0007d583          	lhu	a1,0(a5) # 8000 <register_fini-0x80b0>
   139a6:	0789                	addi	a5,a5,2
   139a8:	36059163          	bnez	a1,13d0a <ediv+0x418>
   139ac:	fed79be3          	bne	a5,a3,139a2 <ediv+0xb0>
   139b0:	01040713          	addi	a4,s0,16
   139b4:	87a2                	mv	a5,s0
   139b6:	0789                	addi	a5,a5,2
   139b8:	fe079f23          	sh	zero,-2(a5)
   139bc:	fee79de3          	bne	a5,a4,139b6 <ediv+0xc4>
   139c0:	77f1                	lui	a5,0xffffc
   139c2:	00f41823          	sh	a5,16(s0)
   139c6:	77e1                	lui	a5,0xffff8
   139c8:	fff7c793          	not	a5,a5
   139cc:	00f41923          	sh	a5,18(s0)
   139d0:	60ee                	ld	ra,216(sp)
   139d2:	644e                	ld	s0,208(sp)
   139d4:	64ae                	ld	s1,200(sp)
   139d6:	690e                	ld	s2,192(sp)
   139d8:	79ea                	ld	s3,184(sp)
   139da:	7a4a                	ld	s4,176(sp)
   139dc:	7aaa                	ld	s5,168(sp)
   139de:	7b0a                	ld	s6,160(sp)
   139e0:	6bea                	ld	s7,152(sp)
   139e2:	6c4a                	ld	s8,144(sp)
   139e4:	6caa                	ld	s9,136(sp)
   139e6:	6d0a                	ld	s10,128(sp)
   139e8:	7de6                	ld	s11,120(sp)
   139ea:	612d                	addi	sp,sp,224
   139ec:	8082                	ret
   139ee:	67a1                	lui	a5,0x8
   139f0:	17fd                	addi	a5,a5,-1
   139f2:	1cf58163          	beq	a1,a5,13bb4 <ediv+0x2c2>
   139f6:	8526                	mv	a0,s1
   139f8:	080c                	addi	a1,sp,16
   139fa:	88bff0ef          	jal	ra,13284 <emovi>
   139fe:	180c                	addi	a1,sp,48
   13a00:	854e                	mv	a0,s3
   13a02:	883ff0ef          	jal	ra,13284 <emovi>
   13a06:	03215a83          	lhu	s5,50(sp)
   13a0a:	01215483          	lhu	s1,18(sp)
   13a0e:	200a8963          	beqz	s5,13c20 <ediv+0x32e>
   13a12:	e456                	sd	s5,8(sp)
   13a14:	8726                	mv	a4,s1
   13a16:	e026                	sd	s1,0(sp)
   13a18:	085c                	addi	a5,sp,20
   13a1a:	1034                	addi	a3,sp,40
   13a1c:	ef09                	bnez	a4,13a36 <ediv+0x144>
   13a1e:	2af68e63          	beq	a3,a5,13cda <ediv+0x3e8>
   13a22:	0007d703          	lhu	a4,0(a5) # 8000 <register_fini-0x80b0>
   13a26:	0789                	addi	a5,a5,2
   13a28:	db7d                	beqz	a4,13a1e <ediv+0x12c>
   13a2a:	0808                	addi	a0,sp,16
   13a2c:	dfcff0ef          	jal	ra,13028 <enormlz>
   13a30:	40a487b3          	sub	a5,s1,a0
   13a34:	e03e                	sd	a5,0(sp)
   13a36:	5742                	lw	a4,48(sp)
   13a38:	03890a93          	addi	s5,s2,56
   13a3c:	87d6                	mv	a5,s5
   13a3e:	02e92a23          	sw	a4,52(s2)
   13a42:	04e90493          	addi	s1,s2,78
   13a46:	0789                	addi	a5,a5,2
   13a48:	fe079f23          	sh	zero,-2(a5)
   13a4c:	fef49de3          	bne	s1,a5,13a46 <ediv+0x154>
   13a50:	1808                	addi	a0,sp,48
   13a52:	c46ff0ef          	jal	ra,12e98 <eshdn1>
   13a56:	01615b03          	lhu	s6,22(sp)
   13a5a:	69c1                	lui	s3,0x10
   13a5c:	04810c13          	addi	s8,sp,72
   13a60:	010b1a13          	slli	s4,s6,0x10
   13a64:	416a0a33          	sub	s4,s4,s6
   13a68:	03210c93          	addi	s9,sp,50
   13a6c:	19fd                	addi	s3,s3,-1
   13a6e:	06a10d13          	addi	s10,sp,106
   13a72:	05210d93          	addi	s11,sp,82
   13a76:	03415783          	lhu	a5,52(sp)
   13a7a:	03615703          	lhu	a4,54(sp)
   13a7e:	8bce                	mv	s7,s3
   13a80:	07c2                	slli	a5,a5,0x10
   13a82:	97ba                	add	a5,a5,a4
   13a84:	00fa6863          	bltu	s4,a5,13a94 <ediv+0x1a2>
   13a88:	0367d7b3          	divu	a5,a5,s6
   13a8c:	03079b93          	slli	s7,a5,0x30
   13a90:	030bdb93          	srli	s7,s7,0x30
   13a94:	0890                	addi	a2,sp,80
   13a96:	080c                	addi	a1,sp,16
   13a98:	855e                	mv	a0,s7
   13a9a:	c9aff0ef          	jal	ra,12f34 <m16m>
   13a9e:	1858                	addi	a4,sp,52
   13aa0:	08dc                	addi	a5,sp,84
   13aa2:	0007d603          	lhu	a2,0(a5)
   13aa6:	00075683          	lhu	a3,0(a4) # ffffffffffff8000 <__BSS_END__+0xfffffffffffd89f0>
   13aaa:	0789                	addi	a5,a5,2
   13aac:	0709                	addi	a4,a4,2
   13aae:	18d61b63          	bne	a2,a3,13c44 <ediv+0x352>
   13ab2:	ffa798e3          	bne	a5,s10,13aa2 <ediv+0x1b0>
   13ab6:	4781                	li	a5,0
   13ab8:	10b4                	addi	a3,sp,104
   13aba:	8662                	mv	a2,s8
   13abc:	00065703          	lhu	a4,0(a2)
   13ac0:	0006d583          	lhu	a1,0(a3)
   13ac4:	1679                	addi	a2,a2,-2
   13ac6:	8f1d                	sub	a4,a4,a5
   13ac8:	8f0d                	sub	a4,a4,a1
   13aca:	01075793          	srli	a5,a4,0x10
   13ace:	00e61123          	sh	a4,2(a2)
   13ad2:	8b85                	andi	a5,a5,1
   13ad4:	16f9                	addi	a3,a3,-2
   13ad6:	ff9613e3          	bne	a2,s9,13abc <ediv+0x1ca>
   13ada:	017a9023          	sh	s7,0(s5)
   13ade:	185c                	addi	a5,sp,52
   13ae0:	0027d703          	lhu	a4,2(a5)
   13ae4:	0789                	addi	a5,a5,2
   13ae6:	fee79f23          	sh	a4,-2(a5)
   13aea:	ff879be3          	bne	a5,s8,13ae0 <ediv+0x1ee>
   13aee:	04011423          	sh	zero,72(sp)
   13af2:	0a89                	addi	s5,s5,2
   13af4:	f95491e3          	bne	s1,s5,13a76 <ediv+0x184>
   13af8:	4701                	li	a4,0
   13afa:	185c                	addi	a5,sp,52
   13afc:	04a10613          	addi	a2,sp,74
   13b00:	0007d683          	lhu	a3,0(a5)
   13b04:	0789                	addi	a5,a5,2
   13b06:	8f55                	or	a4,a4,a3
   13b08:	fec79ce3          	bne	a5,a2,13b00 <ediv+0x20e>
   13b0c:	2701                	sext.w	a4,a4
   13b0e:	00e035b3          	snez	a1,a4
   13b12:	181c                	addi	a5,sp,48
   13b14:	03490713          	addi	a4,s2,52
   13b18:	00075683          	lhu	a3,0(a4)
   13b1c:	0789                	addi	a5,a5,2
   13b1e:	0709                	addi	a4,a4,2
   13b20:	fed79f23          	sh	a3,-2(a5)
   13b24:	fef61ae3          	bne	a2,a5,13b18 <ediv+0x226>
   13b28:	67a2                	ld	a5,8(sp)
   13b2a:	6702                	ld	a4,0(sp)
   13b2c:	6691                	lui	a3,0x4
   13b2e:	16fd                	addi	a3,a3,-1
   13b30:	40e78ab3          	sub	s5,a5,a4
   13b34:	1808                	addi	a0,sp,48
   13b36:	87ca                	mv	a5,s2
   13b38:	04000713          	li	a4,64
   13b3c:	96d6                	add	a3,a3,s5
   13b3e:	4601                	li	a2,0
   13b40:	8bfff0ef          	jal	ra,133fe <emdnorm>
   13b44:	03015703          	lhu	a4,48(sp)
   13b48:	01015783          	lhu	a5,16(sp)
   13b4c:	85a2                	mv	a1,s0
   13b4e:	1808                	addi	a0,sp,48
   13b50:	8f99                	sub	a5,a5,a4
   13b52:	00f037b3          	snez	a5,a5
   13b56:	40f007bb          	negw	a5,a5
   13b5a:	02f11823          	sh	a5,48(sp)
   13b5e:	c3eff0ef          	jal	ra,12f9c <emovo.constprop.0>
   13b62:	b5bd                	j	139d0 <ediv+0xde>
   13b64:	01448713          	addi	a4,s1,20
   13b68:	0004d783          	lhu	a5,0(s1)
   13b6c:	0489                	addi	s1,s1,2
   13b6e:	0409                	addi	s0,s0,2
   13b70:	fef41f23          	sh	a5,-2(s0)
   13b74:	fee49ae3          	bne	s1,a4,13b68 <ediv+0x276>
   13b78:	bda1                	j	139d0 <ediv+0xde>
   13b7a:	01440713          	addi	a4,s0,20
   13b7e:	0009d783          	lhu	a5,0(s3) # 10000 <register_fini-0xb0>
   13b82:	0409                	addi	s0,s0,2
   13b84:	0989                	addi	s3,s3,2
   13b86:	fef41f23          	sh	a5,-2(s0)
   13b8a:	fee41ae3          	bne	s0,a4,13b7e <ediv+0x28c>
   13b8e:	b589                	j	139d0 <ediv+0xde>
   13b90:	830a0593          	addi	a1,s4,-2000
   13b94:	854e                	mv	a0,s3
   13b96:	f84ff0ef          	jal	ra,1331a <ecmp>
   13b9a:	dc0518e3          	bnez	a0,1396a <ediv+0x78>
   13b9e:	bd09                	j	139b0 <ediv+0xbe>
   13ba0:	e4080be3          	beqz	a6,139f6 <ediv+0x104>
   13ba4:	01440793          	addi	a5,s0,20
   13ba8:	0409                	addi	s0,s0,2
   13baa:	fe041f23          	sh	zero,-2(s0)
   13bae:	fef41de3          	bne	s0,a5,13ba8 <ediv+0x2b6>
   13bb2:	bd39                	j	139d0 <ediv+0xde>
   13bb4:	4801                	li	a6,0
   13bb6:	01298693          	addi	a3,s3,18
   13bba:	87ce                	mv	a5,s3
   13bbc:	0007d583          	lhu	a1,0(a5)
   13bc0:	0789                	addi	a5,a5,2
   13bc2:	fdf9                	bnez	a1,13ba0 <ediv+0x2ae>
   13bc4:	fed79ce3          	bne	a5,a3,13bbc <ediv+0x2ca>
   13bc8:	67a1                	lui	a5,0x8
   13bca:	17fd                	addi	a5,a5,-1
   13bcc:	04f50163          	beq	a0,a5,13c0e <ediv+0x31c>
   13bd0:	823d                	srli	a2,a2,0xf
   13bd2:	0009d783          	lhu	a5,0(s3)
   13bd6:	0989                	addi	s3,s3,2
   13bd8:	12079563          	bnez	a5,13d02 <ediv+0x410>
   13bdc:	fed99be3          	bne	s3,a3,13bd2 <ediv+0x2e0>
   13be0:	00f75793          	srli	a5,a4,0xf
   13be4:	8fb1                	xor	a5,a5,a2
   13be6:	00f7979b          	slliw	a5,a5,0xf
   13bea:	00f41923          	sh	a5,18(s0)
   13bee:	01240713          	addi	a4,s0,18
   13bf2:	87a2                	mv	a5,s0
   13bf4:	0789                	addi	a5,a5,2
   13bf6:	fe079f23          	sh	zero,-2(a5) # 7ffe <register_fini-0x80b2>
   13bfa:	fef71de3          	bne	a4,a5,13bf4 <ediv+0x302>
   13bfe:	01245783          	lhu	a5,18(s0)
   13c02:	6721                	lui	a4,0x8
   13c04:	177d                	addi	a4,a4,-1
   13c06:	8fd9                	or	a5,a5,a4
   13c08:	00f41923          	sh	a5,18(s0)
   13c0c:	b3d1                	j	139d0 <ediv+0xde>
   13c0e:	01248593          	addi	a1,s1,18
   13c12:	0004d783          	lhu	a5,0(s1)
   13c16:	0489                	addi	s1,s1,2
   13c18:	e7fd                	bnez	a5,13d06 <ediv+0x414>
   13c1a:	feb49ce3          	bne	s1,a1,13c12 <ediv+0x320>
   13c1e:	bf4d                	j	13bd0 <ediv+0x2de>
   13c20:	185c                	addi	a5,sp,52
